(dp1
S'790693135'
p2
(lp3
F34.185917290900001
asS'990269509'
p4
(lp5
F35.086568518
asS'94523171'
p6
(lp7
F21.498380733000001
asS'2892954268'
p8
(lp9
F33.8013486929
asS'2399958906'
p10
(lp11
F31.6819682912
asS'2329041289'
p12
(lp13
F23.650852709799999
asS'126652559'
p14
(lp15
F35.239954043700003
asS'3345942753'
p16
(lp17
F21.899489286400001
asS'57041662'
p18
(lp19
F26.580955679999999
asS'489885788'
p20
(lp21
F35.502485901599997
asS'173321172'
p22
(lp23
F34.870191984100003
asS'3298840127'
p24
(lp25
F13.334621368400001
asS'403887149'
p26
(lp27
F30.029477610800001
asS'294268053'
p28
(lp29
F32.643706987900003
asS'955698157'
p30
(lp31
F28.1179715755
asS'19432346'
p32
(lp33
F52.442957254600003
asS'2771704583'
p34
(lp35
F37.2232449937
asS'2834570816'
p36
(lp37
F26.719373667199999
asS'2391370394'
p38
(lp39
F26.564373031300001
asS'288429959'
p40
(lp41
F26.297913916399999
asS'2188828022'
p42
(lp43
F26.732625666200001
asS'878546018'
p44
(lp45
F31.8915911954
asS'113092693'
p46
(lp47
F29.083461352499999
asS'47104135'
p48
(lp49
F43.231105885600002
asS'2178564559'
p50
(lp51
F22.917519561199999
asS'15066876'
p52
(lp53
F29.8961747104
asS'1870184766'
p54
(lp55
F24.558385241900002
asS'1146809210'
p56
(lp57
F30.317265353
asS'310097198'
p58
(lp59
F22.5308060015
asS'1910770484'
p60
(lp61
F26.307789175100002
asS'229158981'
p62
(lp63
F22.470142139699998
asS'1313442830'
p64
(lp65
F24.696712997900001
asS'1724303324'
p66
(lp67
F21.711688629099999
asS'253742998'
p68
(lp69
F24.182935060599998
asS'162114552'
p70
(lp71
F25.400530610200001
asS'2233135202'
p72
(lp73
F42.4499321013
asS'62697366'
p74
(lp75
F31.0138523181
asS'263897316'
p76
(lp77
F24.7912072839
asS'259332340'
p78
(lp79
F26.270749127799998
asS'1876171898'
p80
(lp81
F26.731688547299999
asS'285097277'
p82
(lp83
F29.343254380299999
asS'1245066085'
p84
(lp85
F32.9449697939
asS'778712898'
p86
(lp87
F23.9088064948
asS'710757859'
p88
(lp89
F19.222860438400001
asS'1395074425'
p90
(lp91
F33.839689538000002
asS'2347855458'
p92
(lp93
F27.7492750597
asS'1650388410'
p94
(lp95
F29.582263672
asS'25644429'
p96
(lp97
F23.920349104700001
asS'18665002'
p98
(lp99
F24.090699772800001
asS'29941615'
p100
(lp101
F21.7299819616
asS'531598877'
p102
(lp103
F24.853252501099998
asS'1174456664'
p104
(lp105
F30.034504913100001
asS'374572659'
p106
(lp107
F20.2827438162
asS'2743380299'
p108
(lp109
F18.6940254551
asS'2377530392'
p110
(lp111
F25.569789542799999
asS'933595302'
p112
(lp113
F38.712587771599999
asS'2517983482'
p114
(lp115
F17.7840878041
asS'246774523'
p116
(lp117
F30.098460508999999
asS'244804238'
p118
(lp119
F23.554084286599998
asS'144500227'
p120
(lp121
F26.9933637651
asS'2250167449'
p122
(lp123
F33.930175360900002
asS'16554942'
p124
(lp125
F23.906448681600001
asS'1455683906'
p126
(lp127
F34.710964193700001
asS'14803951'
p128
(lp129
F35.691927212000003
asS'204355964'
p130
(lp131
F28.553334572499999
asS'2250739063'
p132
(lp133
F25.9860838675
asS'2806775116'
p134
(lp135
F22.664738366400002
asS'1916081982'
p136
(lp137
F33.770607075699999
asS'2568649342'
p138
(lp139
F20.769236335900001
asS'1597398924'
p140
(lp141
F23.136382592099999
asS'252309149'
p142
(lp143
F19.759336966199999
asS'2720677413'
p144
(lp145
F27.5283653065
asS'2381198785'
p146
(lp147
F29.522252868399999
asS'245050578'
p148
(lp149
F20.887101932099998
asS'24413950'
p150
(lp151
F30.396625315200001
asS'274335684'
p152
(lp153
F26.634073270599998
asS'728746483'
p154
(lp155
F30.057740441699998
asS'1279365926'
p156
(lp157
F27.9672193693
asS'12897402'
p158
(lp159
F30.153072420400001
asS'2834414549'
p160
(lp161
F34.005478201099997
asS'376370548'
p162
(lp163
F29.489520892800002
asS'355655086'
p164
(lp165
F32.140260235200003
asS'226906498'
p166
(lp167
F27.324680203300002
asS'1361202602'
p168
(lp169
F24.290378571800002
asS'28043760'
p170
(lp171
F27.665802487699999
asS'2915583070'
p172
(lp173
F35.958291488699999
asS'2733656017'
p174
(lp175
F42.447659605399998
asS'20004501'
p176
(lp177
F29.121845832599998
asS'80351619'
p178
(lp179
F20.418192745399999
asS'332390008'
p180
(lp181
F29.464351943600001
asS'25678502'
p182
(lp183
F35.389471828399998
asS'3248242181'
p184
(lp185
F41.875097855200003
asS'177280097'
p186
(lp187
F40.621779352899999
asS'20702013'
p188
(lp189
F27.9075784427
asS'151178659'
p190
(lp191
F26.951251317099999
asS'20627081'
p192
(lp193
F36.4399901054
asS'24546672'
p194
(lp195
F40.624890131400001
asS'87506526'
p196
(lp197
F27.811661514899999
asS'1050455592'
p198
(lp199
F37.787118047900002
asS'2159222945'
p200
(lp201
F25.847325078400001
asS'1716904873'
p202
(lp203
F24.526607563999999
asS'2171549541'
p204
(lp205
F13
asS'2323631724'
p206
(lp207
F20.8981585119
asS'3335138362'
p208
(lp209
F31.509461720299999
asS'163785600'
p210
(lp211
F22.681275537499999
asS'1210753874'
p212
(lp213
F18.024960156799999
asS'217436303'
p214
(lp215
F24.374834777699999
asS'48124610'
p216
(lp217
F28.360940519100001
asS'2562091886'
p218
(lp219
F27.3835224836
asS'373125198'
p220
(lp221
F42.233643761300002
asS'1242194030'
p222
(lp223
F22.904008064300001
asS'2737892870'
p224
(lp225
F43.0721165036
asS'923641921'
p226
(lp227
F39.449361258400003
asS'1172143405'
p228
(lp229
F38.382775793500002
asS'2738371508'
p230
(lp231
F36.660008498400003
asS'1088909654'
p232
(lp233
F21.966880835400001
asS'601361069'
p234
(lp235
F27.899356804899998
asS'1448986688'
p236
(lp237
F36.159129589800003
asS'770658414'
p238
(lp239
F31.195327432199999
asS'2172704688'
p240
(lp241
F15.8652495517
asS'67958783'
p242
(lp243
F26.026241076800002
asS'7846072'
p244
(lp245
F31.728154608699999
asS'93246877'
p246
(lp247
F32.2927849792
asS'2317221572'
p248
(lp249
F18.815710175300001
asS'2924408093'
p250
(lp251
F28.874469726499999
asS'22067872'
p252
(lp253
F25.018353986800001
asS'181813506'
p254
(lp255
F28.2844869539
asS'156669366'
p256
(lp257
F20.129945509900001
asS'115883210'
p258
(lp259
F29.684696183
asS'937704163'
p260
(lp261
F31.276713572199998
asS'3069923951'
p262
(lp263
F30.287648173499999
asS'1283582233'
p264
(lp265
F29.782679210400001
asS'15170286'
p266
(lp267
F28.309372288100001
asS'38031897'
p268
(lp269
F26.5575194121
asS'2165411305'
p270
(lp271
F40.002416163100001
asS'560452828'
p272
(lp273
F26.635681067299998
asS'437106458'
p274
(lp275
F36.819292417500002
asS'18512848'
p276
(lp277
F39.198577032199999
asS'318667006'
p278
(lp279
F26.9753422418
asS'1671813086'
p280
(lp281
F31.454460424499999
asS'49161541'
p282
(lp283
F25.990190535499998
asS'113437689'
p284
(lp285
F33.831076986500001
asS'1548835656'
p286
(lp287
F24.398488212299998
asS'273617799'
p288
(lp289
F23.488956317300001
asS'1949713398'
p290
(lp291
F28.166037517500001
asS'128633483'
p292
(lp293
F29.746202545700001
asS'1154412506'
p294
(lp295
F30.1205058854
asS'3089717234'
p296
(lp297
F29.5176334664
asS'103747812'
p298
(lp299
F29.432229215700001
asS'38445467'
p300
(lp301
F24.212403140399999
asS'336867747'
p302
(lp303
F16.4092734225
asS'1670645592'
p304
(lp305
F29.955962981999999
asS'549389967'
p306
(lp307
F25.634416715699999
asS'16185232'
p308
(lp309
F26.945061913899998
asS'61105042'
p310
(lp311
F34.466829137600001
asS'573912263'
p312
(lp313
F22.3745198208
asS'2469234901'
p314
(lp315
F35.2400247554
asS'189028749'
p316
(lp317
F26.569451477099999
asS'21909984'
p318
(lp319
F38.283564007899997
asS'63195884'
p320
(lp321
F32.108606683399998
asS'118768811'
p322
(lp323
F21.779132937
asS'362576854'
p324
(lp325
F29.008531354399999
asS'29584150'
p326
(lp327
F34.145600980799998
asS'162959947'
p328
(lp329
F30.862156511199998
asS'551509847'
p330
(lp331
F29.190977487800001
asS'757634750'
p332
(lp333
F28.730977030599998
asS'1566855433'
p334
(lp335
F37.9788724569
asS'2766921938'
p336
(lp337
F25.441741331900001
asS'123791065'
p338
(lp339
F33.081876543699998
asS'65142014'
p340
(lp341
F35.648785423200003
asS'94642746'
p342
(lp343
F24.102075930600002
asS'429260925'
p344
(lp345
F32.256668808000001
asS'330184418'
p346
(lp347
F23.271758997999999
asS'1874616600'
p348
(lp349
F21.2780472293
asS'32313617'
p350
(lp351
F17.157276952099998
asS'323385721'
p352
(lp353
F29.91669782
asS'292976071'
p354
(lp355
F24.523852997100001
asS'168286179'
p356
(lp357
F26.407793300600002
asS'921983294'
p358
(lp359
F28.3620298576
asS'245462185'
p360
(lp361
F32.064428695899998
asS'246533149'
p362
(lp363
F24.703617678800001
asS'530963739'
p364
(lp365
F24.511609055899999
asS'469664311'
p366
(lp367
F15.068371026599999
asS'1735264291'
p368
(lp369
F27.487108233200001
asS'738696752'
p370
(lp371
F30.965692387899999
asS'909106970'
p372
(lp373
F28.408320274000001
asS'537319315'
p374
(lp375
F29.147225442100002
asS'26071396'
p376
(lp377
F32.626726765500003
asS'2886941025'
p378
(lp379
F35.344675835300002
asS'1450205844'
p380
(lp381
F32.129750680000001
asS'33346915'
p382
(lp383
F37.4248233024
asS'1925202294'
p384
(lp385
F19.712430974
asS'547904199'
p386
(lp387
F31.946387258000001
asS'1068480204'
p388
(lp389
F31.272275330599999
asS'748477502'
p390
(lp391
F30.326092747699999
asS'590173575'
p392
(lp393
F31.822585012800001
asS'540660963'
p394
(lp395
F26.319405021800002
asS'141121573'
p396
(lp397
F19.452082857600001
asS'498700046'
p398
(lp399
F29.1342794185
asS'1549127594'
p400
(lp401
F26.6440689175
asS'1494592956'
p402
(lp403
F37.931939314300003
asS'16717148'
p404
(lp405
F32.8815495578
asS'582592612'
p406
(lp407
F29.243000050500001
asS'29757178'
p408
(lp409
F27.785941786399999
asS'213620244'
p410
(lp411
F21.758016446900001
asS'1053036164'
p412
(lp413
F23.5972553171
asS'741501228'
p414
(lp415
F21.5081341524
asS'3057295002'
p416
(lp417
F25.140977620499999
asS'203650771'
p418
(lp419
F30.076656859100002
asS'30559248'
p420
(lp421
F32.380110550600001
asS'305729040'
p422
(lp423
F27.8215667644
asS'1668786650'
p424
(lp425
F24.967903970799998
asS'307409976'
p426
(lp427
F34.984686900200003
asS'304525409'
p428
(lp429
F22.9152689909
asS'1370900198'
p430
(lp431
F20.628298880399999
asS'3353633032'
p432
(lp433
F21.590589765200001
asS'30800485'
p434
(lp435
F27.588174814399999
asS'28918980'
p436
(lp437
F30.9584171401
asS'486090167'
p438
(lp439
F22.6393392351
asS'3188005545'
p440
(lp441
F35.798379420499998
asS'2821082002'
p442
(lp443
F27.463827741599999
asS'95064543'
p444
(lp445
F30.739659773300001
asS'2159643042'
p446
(lp447
F25.4192927673
asS'196531533'
p448
(lp449
F27.292462662799998
asS'51716011'
p450
(lp451
F26.133037639299999
asS'37374348'
p452
(lp453
F22.8262388118
asS'741063613'
p454
(lp455
F28.039853623999999
asS'2670742214'
p456
(lp457
F24.530541519700002
asS'155967817'
p458
(lp459
F22.013657467000002
asS'25769369'
p460
(lp461
F26.0868629012
asS'41993876'
p462
(lp463
F24.6695477743
asS'3160361312'
p464
(lp465
F34.740685399999997
asS'77809578'
p466
(lp467
F25.196416078599999
asS'1400503214'
p468
(lp469
F27.135069114699998
asS'811683181'
p470
(lp471
F19.246609535699999
asS'3342381723'
p472
(lp473
F32.500962158500002
asS'563613307'
p474
(lp475
F26.355012830700002
asS'488911358'
p476
(lp477
F26.486447092999999
asS'22019443'
p478
(lp479
F35.459822199800001
asS'2636759396'
p480
(lp481
F32.942306734799999
asS'3098137655'
p482
(lp483
F26.858553664999999
asS'160310017'
p484
(lp485
F32.680892755800002
asS'1528659481'
p486
(lp487
F29.1860862644
asS'302335399'
p488
(lp489
F16.518379737899998
asS'25669608'
p490
(lp491
F25.962244522300001
asS'19597938'
p492
(lp493
F34.748582618599997
asS'132049786'
p494
(lp495
F31.891162061999999
asS'436351349'
p496
(lp497
F31.443039545200001
asS'143795236'
p498
(lp499
F26.691334950800002
asS'3312275805'
p500
(lp501
F17.221306905500001
asS'333934967'
p502
(lp503
F27.999722284299999
asS'229670513'
p504
(lp505
F22.341877982900002
asS'48599448'
p506
(lp507
F30.8307221088
asS'3195957620'
p508
(lp509
F32.736360682300003
asS'133402768'
p510
(lp511
F29.117922039
asS'536563145'
p512
(lp513
F23.031570115099999
asS'2490529512'
p514
(lp515
F29.344168057200001
asS'386815752'
p516
(lp517
F26.2498519303
asS'229138094'
p518
(lp519
F18.375664715599999
asS'546009548'
p520
(lp521
F23.549747147000001
asS'30967930'
p522
(lp523
F25.192214098699999
asS'1071058956'
p524
(lp525
F30.677591070599998
asS'212293372'
p526
(lp527
F34.975030715899997
asS'297943941'
p528
(lp529
F29.479248218199999
asS'289912507'
p530
(lp531
F23.2667299065
asS'531875717'
p532
(lp533
F17.356637382799999
asS'3217290237'
p534
(lp535
F32.773061984199998
asS'82774733'
p536
(lp537
F17.690129843299999
asS'893412883'
p538
(lp539
F30.7864251588
asS'376387781'
p540
(lp541
F26.414632544700002
asS'535803197'
p542
(lp543
F29.797020316600001
asS'2794221156'
p544
(lp545
F19.337722685900001
asS'2971467125'
p546
(lp547
F32.191818134999998
asS'305567341'
p548
(lp549
F40.056326858399999
asS'215876901'
p550
(lp551
F30.190957597699999
asS'50717228'
p552
(lp553
F26.993468739600001
asS'1566785113'
p554
(lp555
F30.521263017999999
asS'3188611670'
p556
(lp557
F40.463758186600003
asS'760786218'
p558
(lp559
F31.120768412699999
asS'1009689475'
p560
(lp561
F28.284936779799999
asS'93814009'
p562
(lp563
F23.2611117153
asS'170791380'
p564
(lp565
F27.984120732800001
asS'266277152'
p566
(lp567
F22.409503282100001
asS'28321654'
p568
(lp569
F31.4682098127
asS'2411506334'
p570
(lp571
F38.277970479700002
asS'3251305226'
p572
(lp573
F29.785534621099998
asS'3024312490'
p574
(lp575
F19.861402599200002
asS'176657599'
p576
(lp577
F36.712625428800003
asS'206972203'
p578
(lp579
F35.566374147099999
asS'2784392406'
p580
(lp581
F39.593160945599998
asS'1513958744'
p582
(lp583
F26.406959851300002
asS'934438520'
p584
(lp585
F31.1388664541
asS'102415827'
p586
(lp587
F34.7791664091
asS'433645820'
p588
(lp589
F25.509517870300002
asS'3081420210'
p590
(lp591
F31.235290635999998
asS'3119839568'
p592
(lp593
F28.0851149613
asS'483405140'
p594
(lp595
F32.458374862500001
asS'1506087619'
p596
(lp597
F37.417138489700001
asS'159605210'
p598
(lp599
F20.805305178699999
asS'721325751'
p600
(lp601
F19.673578930800002
asS'2714736302'
p602
(lp603
F31.827603479899999
asS'347927563'
p604
(lp605
F29.1171007467
asS'3052054201'
p606
(lp607
F28.4194015984
asS'2519041406'
p608
(lp609
F21.8543314914
asS'380721869'
p610
(lp611
F28.934414375100001
asS'468379383'
p612
(lp613
F35.876279825499999
asS'2588321996'
p614
(lp615
F24.438536014499999
asS'391201809'
p616
(lp617
F28.807232063699999
asS'197918942'
p618
(lp619
F30.9489949327
asS'262238760'
p620
(lp621
F22.809087955100001
asS'3083012555'
p622
(lp623
F27.315397478000001
asS'131118806'
p624
(lp625
F29.670865258500001
asS'312480764'
p626
(lp627
F33.425233450199997
asS'368623629'
p628
(lp629
F29.952770875700001
asS'67474314'
p630
(lp631
F19.560907487400002
asS'2931942752'
p632
(lp633
F26.6109666332
asS'1636125805'
p634
(lp635
F20.096101155700001
asS'19728844'
p636
(lp637
F30.9236388757
asS'408299234'
p638
(lp639
F23.3825911942
asS'2935492656'
p640
(lp641
F29.550176861000001
asS'2321093156'
p642
(lp643
F22.514713587199999
asS'2915212368'
p644
(lp645
F40.988967248999998
asS'171152361'
p646
(lp647
F42.2733951612
asS'355925674'
p648
(lp649
F15.8954869701
asS'2480435185'
p650
(lp651
F26.5602726527
asS'1556984887'
p652
(lp653
F27.742334440800001
asS'3017893369'
p654
(lp655
F25.9777966953
asS'2385515678'
p656
(lp657
F29.1560444361
asS'113907168'
p658
(lp659
F30.3403243811
asS'3233824334'
p660
(lp661
F30.628743077399999
asS'134446334'
p662
(lp663
F29.838383586900001
asS'60420690'
p664
(lp665
F29.1100792322
asS'996156068'
p666
(lp667
F29.1314841043
asS'2794490467'
p668
(lp669
F31.664136425100001
asS'207834313'
p670
(lp671
F27.179546803400001
asS'2588663610'
p672
(lp673
F21.920185610299999
asS'517997193'
p674
(lp675
F46.704348254800003
asS'310100825'
p676
(lp677
F31.095243174299998
asS'373364557'
p678
(lp679
F36.108631043000003
asS'28152598'
p680
(lp681
F34.469537382600002
asS'36005781'
p682
(lp683
F24.126636618700001
asS'3134097521'
p684
(lp685
F32.7762187449
asS'3309419164'
p686
(lp687
F32.440024335300002
asS'1635259598'
p688
(lp689
F30.905097317999999
asS'245115093'
p690
(lp691
F29.9546097158
asS'511231057'
p692
(lp693
F30.192564712700001
asS'2918621564'
p694
(lp695
F21.654377483800001
asS'1675930123'
p696
(lp697
F28.274615798500001
asS'172081908'
p698
(lp699
F28.3512339862
asS'65254420'
p700
(lp701
F28.520295338499999
asS'16134203'
p702
(lp703
F30.932564495200001
asS'40684243'
p704
(lp705
F30.250956135199999
asS'87957969'
p706
(lp707
F40.011810864099999
asS'284677404'
p708
(lp709
F31.460157429999999
asS'264262161'
p710
(lp711
F30.872252385700001
asS'321711032'
p712
(lp713
F20.415397639599998
asS'2863774500'
p714
(lp715
F30.177337277900001
asS'1335392197'
p716
(lp717
F24.420275850199999
asS'24828490'
p718
(lp719
F25.543418894599998
asS'2956259109'
p720
(lp721
F25.444202571200002
asS'43100087'
p722
(lp723
F28.584442084799999
asS'358730722'
p724
(lp725
F31.909028520900002
asS'1883333624'
p726
(lp727
F18.1706931256
asS'608461233'
p728
(lp729
F25.449954696100001
asS'734859698'
p730
(lp731
F21.745889603799998
asS'387194480'
p732
(lp733
F28.671497524199999
asS'963507068'
p734
(lp735
F14.7824991114
asS'34993742'
p736
(lp737
F19.9504454456
asS'1636106844'
p738
(lp739
F31.320655190699998
asS'2587637972'
p740
(lp741
F25.009308713100001
asS'178985300'
p742
(lp743
F33.514428621900002
asS'25030651'
p744
(lp745
F34.990574745300002
asS'130977700'
p746
(lp747
F26.115032682900001
asS'309298423'
p748
(lp749
F32.2630539309
asS'2904695183'
p750
(lp751
F23.449205953300002
asS'3064348854'
p752
(lp753
F30.5362859729
asS'91158484'
p754
(lp755
F29.0165877305
asS'291256350'
p756
(lp757
F34.887386979299997
asS'379385416'
p758
(lp759
F33.259330276500002
asS'550273827'
p760
(lp761
F24.357980943699999
asS'577337789'
p762
(lp763
F30.710436614500001
asS'2958943328'
p764
(lp765
F24.3333684338
asS'2792946075'
p766
(lp767
F21.220448181799998
asS'230020913'
p768
(lp769
F30.731163563700001
asS'3257810966'
p770
(lp771
F20.267433790599998
asS'2481532026'
p772
(lp773
F24.433014316800001
asS'1891615903'
p774
(lp775
F31.0256304075
asS'142592735'
p776
(lp777
F42.124036797899997
asS'243801539'
p778
(lp779
F40.521431336100001
asS'203333954'
p780
(lp781
F22.755591492800001
asS'623033353'
p782
(lp783
F29.136401315200001
asS'1081973952'
p784
(lp785
F29.413804936599998
asS'373165900'
p786
(lp787
F25.3299402291
asS'471333409'
p788
(lp789
F30.9096353457
asS'185991141'
p790
(lp791
F30.0455745519
asS'2193063256'
p792
(lp793
F31.3596883897
asS'32765764'
p794
(lp795
F40.955947916600003
asS'400043405'
p796
(lp797
F35.0399205541
asS'27528481'
p798
(lp799
F30.631506900800002
asS'273641006'
p800
(lp801
F23.561762249800001
asS'3243175638'
p802
(lp803
F33.128506372099999
asS'2449650492'
p804
(lp805
F34.923365204200003
asS'1508087564'
p806
(lp807
F31.1122789705
asS'3142839960'
p808
(lp809
F27.5307857144
asS'399395577'
p810
(lp811
F31.156016388600001
asS'67151580'
p812
(lp813
F27.8624263944
asS'2362104414'
p814
(lp815
F31.063362674899999
asS'1005383936'
p816
(lp817
F45.0214282779
asS'404923541'
p818
(lp819
F37.218173788500003
asS'75109799'
p820
(lp821
F28.266458813
asS'171685797'
p822
(lp823
F32.762756618700003
asS'21415068'
p824
(lp825
F27.4910643069
asS'256209052'
p826
(lp827
F30.209756854599998
asS'16187025'
p828
(lp829
F26.955252827500001
asS'254405503'
p830
(lp831
F27.469328756500001
asS'1675284572'
p832
(lp833
F23.499951406899999
asS'355470606'
p834
(lp835
F24.286592336799998
asS'2603857171'
p836
(lp837
F29.2335467184
asS'324119016'
p838
(lp839
F39.553474357100001
asS'533747731'
p840
(lp841
F27.852936207399999
asS'2798120162'
p842
(lp843
F37.819780502299999
asS'248454003'
p844
(lp845
F29.760885213800002
asS'710686688'
p846
(lp847
F36.215101725399997
asS'56350690'
p848
(lp849
F26.582415789900001
asS'2942346460'
p850
(lp851
F23.520943605399999
asS'331313453'
p852
(lp853
F36.355588280799999
asS'2987979504'
p854
(lp855
F13
asS'2933804643'
p856
(lp857
F27.2082377302
asS'560198159'
p858
(lp859
F27.781064631500001
asS'3102023268'
p860
(lp861
F30.782436771699999
asS'23885775'
p862
(lp863
F39.623401245300002
asS'124051525'
p864
(lp865
F29.246783607000001
asS'1358107219'
p866
(lp867
F29.201225987000001
asS'420572254'
p868
(lp869
F27.230108051599998
asS'805547964'
p870
(lp871
F36.939596882799997
asS'19802846'
p872
(lp873
F29.820249631599999
asS'2275254024'
p874
(lp875
F29.588890667899999
asS'3048509299'
p876
(lp877
F14.517334789
asS'313121798'
p878
(lp879
F27.475038161800001
asS'1093199732'
p880
(lp881
F20.946789798800001
asS'3245355291'
p882
(lp883
F24.3159281756
asS'213391346'
p884
(lp885
F25.326853094800001
asS'2972740510'
p886
(lp887
F19.2714264094
asS'2873316438'
p888
(lp889
F21.482182805400001
asS'1403424721'
p890
(lp891
F26.564243660100001
asS'856463456'
p892
(lp893
F27.161180567199999
asS'88875512'
p894
(lp895
F34.030516906999999
asS'574136126'
p896
(lp897
F20.5394378397
asS'387485416'
p898
(lp899
F28.645725474999999
asS'2443269734'
p900
(lp901
F25.477932124199999
asS'32138442'
p902
(lp903
F28.4154024262
asS'2473562064'
p904
(lp905
F34.146485705099998
asS'460422982'
p906
(lp907
F32.491217328300003
asS'1156371384'
p908
(lp909
F31.791255835600001
asS'24572630'
p910
(lp911
F29.637376980199999
asS'370324628'
p912
(lp913
F43.139362202400001
asS'57263670'
p914
(lp915
F30.8192186104
asS'178332153'
p916
(lp917
F30.804106187399999
asS'50243741'
p918
(lp919
F29.245095191600001
asS'2436947964'
p920
(lp921
F28.630785830899999
asS'1374764281'
p922
(lp923
F31.109785410499999
asS'2970330011'
p924
(lp925
F32.589663580200003
asS'2956241626'
p926
(lp927
F23.044408245
asS'510823412'
p928
(lp929
F32.843479449
asS'33336675'
p930
(lp931
F29.989895581500001
asS'3225735272'
p932
(lp933
F26.949630831299999
asS'52436759'
p934
(lp935
F33.264850064599997
asS'121535535'
p936
(lp937
F21.0424495906
asS'2483908675'
p938
(lp939
F65
asS'20812098'
p940
(lp941
F32.386614823199999
asS'412558070'
p942
(lp943
F21.619618667099999
asS'62617728'
p944
(lp945
F31.311747963799998
asS'89547441'
p946
(lp947
F35.810989210999999
asS'411485640'
p948
(lp949
F29.5909359632
asS'27587178'
p950
(lp951
F29.768010817699999
asS'607630997'
p952
(lp953
F25.742315112699998
asS'2786939868'
p954
(lp955
F34.856786825100002
asS'711602922'
p956
(lp957
F29.9533651146
asS'593296499'
p958
(lp959
F30.123611886799999
asS'17022638'
p960
(lp961
F41.162805146799997
asS'1426676066'
p962
(lp963
F21.8816158393
asS'3255039704'
p964
(lp965
F18.694952863099999
asS'512627900'
p966
(lp967
F18.002334709500001
asS'3181603264'
p968
(lp969
F23.138573141799998
asS'48762009'
p970
(lp971
F33.076620942700004
asS'3308732037'
p972
(lp973
F26.044974915299999
asS'54032913'
p974
(lp975
F34.146991907199997
asS'232865000'
p976
(lp977
F25.6563627709
asS'741858643'
p978
(lp979
F33.1744967168
asS'1295672767'
p980
(lp981
F27.3974544073
asS'276895252'
p982
(lp983
F28.465737842500001
asS'252728214'
p984
(lp985
F35.361668446000003
asS'252270001'
p986
(lp987
F33.4175943296
asS'45454970'
p988
(lp989
F30.585212699700001
asS'220826934'
p990
(lp991
F32.8154603861
asS'2547170155'
p992
(lp993
F30.4509577464
asS'395381456'
p994
(lp995
F29.214179410300002
asS'828155418'
p996
(lp997
F34.335086909700003
asS'91562723'
p998
(lp999
F24.353093290499999
asS'286910376'
p1000
(lp1001
F27.192824832500001
asS'1438949354'
p1002
(lp1003
F27.013030286300001
asS'3152299939'
p1004
(lp1005
F31.367803620899998
asS'449603053'
p1006
(lp1007
F28.1018695018
asS'15335491'
p1008
(lp1009
F30.4677197591
asS'2993036154'
p1010
(lp1011
F28.249165786799999
asS'2516013102'
p1012
(lp1013
F42.779840229000001
asS'1222740728'
p1014
(lp1015
F29.0905023955
asS'103000520'
p1016
(lp1017
F27.812392580899999
asS'713564221'
p1018
(lp1019
F20.240465762300001
asS'3142593119'
p1020
(lp1021
F20.033728112999999
asS'219904325'
p1022
(lp1023
F32.270380119199999
asS'1125492462'
p1024
(lp1025
F29.602145342299998
asS'66030606'
p1026
(lp1027
F27.9376018705
asS'1045239187'
p1028
(lp1029
F30.6134668903
asS'69980982'
p1030
(lp1031
F27.281898007700001
asS'26350601'
p1032
(lp1033
F22.836948216100001
asS'2724370473'
p1034
(lp1035
F17.205525423000001
asS'2759480186'
p1036
(lp1037
F26.635963111999999
asS'969012494'
p1038
(lp1039
F25.466757403399999
asS'522110370'
p1040
(lp1041
F22.475697943899998
asS'354440308'
p1042
(lp1043
F30.084421380799999
asS'231683938'
p1044
(lp1045
F27.602721840899999
asS'846649044'
p1046
(lp1047
F19.801304174399998
asS'26958961'
p1048
(lp1049
F26.917827045799999
asS'2845021300'
p1050
(lp1051
F28.686829343100001
asS'54253578'
p1052
(lp1053
F32.698985522199997
asS'805092764'
p1054
(lp1055
F30.236729587599999
asS'25437536'
p1056
(lp1057
F37.0817164049
asS'471145656'
p1058
(lp1059
F24.8462512692
asS'593986993'
p1060
(lp1061
F20.873608720499998
asS'135627420'
p1062
(lp1063
F28.682909412699999
asS'21109485'
p1064
(lp1065
F24.402272352499999
asS'129960904'
p1066
(lp1067
F33.324603983099998
asS'32200853'
p1068
(lp1069
F28.050864723899998
asS'25429361'
p1070
(lp1071
F23.212296587800001
asS'2376582930'
p1072
(lp1073
F29.362119955499999
asS'397860713'
p1074
(lp1075
F31.862313831800002
asS'26313306'
p1076
(lp1077
F30.8027323839
asS'347500057'
p1078
(lp1079
F17.116246129299999
asS'38308265'
p1080
(lp1081
F31.515437432599999
asS'330472602'
p1082
(lp1083
F38.918938552199997
asS'285968258'
p1084
(lp1085
F28.4658752926
asS'63291287'
p1086
(lp1087
F34.803360526600002
asS'849769500'
p1088
(lp1089
F33.143356615000002
asS'3224829778'
p1090
(lp1091
F23.498838149200001
asS'131555214'
p1092
(lp1093
F21.3355056879
asS'1938597084'
p1094
(lp1095
F21.007734017899999
asS'2788880730'
p1096
(lp1097
F31.963067367400001
asS'3001327774'
p1098
(lp1099
F23.107963751
asS'588441390'
p1100
(lp1101
F34.718604138400003
asS'230899742'
p1102
(lp1103
F23.447035405699999
asS'1531791140'
p1104
(lp1105
F24.8947854392
asS'19215129'
p1106
(lp1107
F30.302323385600001
asS'576796855'
p1108
(lp1109
F28.7121816061
asS'2553149010'
p1110
(lp1111
F21.382229625099999
asS'433684935'
p1112
(lp1113
F23.161254495800002
asS'267634630'
p1114
(lp1115
F25.430154073200001
asS'25564023'
p1116
(lp1117
F44.497684664399998
asS'34055339'
p1118
(lp1119
F14.797978517100001
asS'61266376'
p1120
(lp1121
F37.154798088200003
asS'1090012232'
p1122
(lp1123
F29.674816054000001
asS'23953082'
p1124
(lp1125
F27.9271935925
asS'3152384252'
p1126
(lp1127
F26.0158666166
asS'254744099'
p1128
(lp1129
F23.912216485399998
asS'288981065'
p1130
(lp1131
F34.151547958099997
asS'168819220'
p1132
(lp1133
F29.8233110183
asS'1978031743'
p1134
(lp1135
F29.2100816108
asS'1861023685'
p1136
(lp1137
F25.118885609900001
asS'44481898'
p1138
(lp1139
F32.956031644900001
asS'408752680'
p1140
(lp1141
F30.837142675799999
asS'382153540'
p1142
(lp1143
F31.283223736899998
asS'2952468264'
p1144
(lp1145
F35.901600187900002
asS'1057244852'
p1146
(lp1147
F24.997297356099999
asS'1417728643'
p1148
(lp1149
F27.7285840013
asS'14671904'
p1150
(lp1151
F30.4943914712
asS'1270528207'
p1152
(lp1153
F29.107401444299999
asS'480018197'
p1154
(lp1155
F29.846425020000002
asS'24172701'
p1156
(lp1157
F34.311763432900001
asS'14745550'
p1158
(lp1159
F32.551700236999999
asS'2883615951'
p1160
(lp1161
F27.942568427699999
asS'14970812'
p1162
(lp1163
F28.626747457600001
asS'366843188'
p1164
(lp1165
F30.905237119300001
asS'2372095194'
p1166
(lp1167
F34.5867896524
asS'2470409048'
p1168
(lp1169
F35.9781132926
asS'474447301'
p1170
(lp1171
F28.244802396099999
asS'2230671487'
p1172
(lp1173
F45.273818356900001
asS'212463932'
p1174
(lp1175
F29.8082162997
asS'141054864'
p1176
(lp1177
F25.719706279
asS'20416773'
p1178
(lp1179
F41.872455172899997
asS'3251123730'
p1180
(lp1181
F26.667832320599999
asS'251494353'
p1182
(lp1183
F22.5426365436
asS'42479153'
p1184
(lp1185
F33.593732037000002
asS'313731146'
p1186
(lp1187
F24.367927954399999
asS'178095617'
p1188
(lp1189
F23.699624825099999
asS'3000285002'
p1190
(lp1191
F16.154057746300001
asS'952682149'
p1192
(lp1193
F29.455320585100001
asS'233257967'
p1194
(lp1195
F29.024747322
asS'292586465'
p1196
(lp1197
F22.962198998600002
asS'1639395961'
p1198
(lp1199
F27.5382378905
asS'3300607612'
p1200
(lp1201
F22.772643291200001
asS'574998716'
p1202
(lp1203
F25.8213926452
asS'3038116383'
p1204
(lp1205
F26.727082844800002
asS'41581659'
p1206
(lp1207
F30.231932449399999
asS'107229597'
p1208
(lp1209
F37.073840902999997
asS'255067647'
p1210
(lp1211
F36.2371941675
asS'2565936404'
p1212
(lp1213
F33.547137924099999
asS'832953192'
p1214
(lp1215
F26.8606048599
asS'107284130'
p1216
(lp1217
F32.4401958276
asS'220837902'
p1218
(lp1219
F18.5845153633
asS'38104249'
p1220
(lp1221
F28.2946728597
asS'816316734'
p1222
(lp1223
F18.511463254500001
asS'19694480'
p1224
(lp1225
F28.904989778699999
asS'43405249'
p1226
(lp1227
F26.022971179300001
asS'60702622'
p1228
(lp1229
F38.215123349599999
asS'2251286285'
p1230
(lp1231
F27.918947059699999
asS'2387639999'
p1232
(lp1233
F32.857127748000003
asS'1349093048'
p1234
(lp1235
F32.769806790499999
asS'28424279'
p1236
(lp1237
F23.786755683399999
asS'849122588'
p1238
(lp1239
F27.5667878627
asS'2727832941'
p1240
(lp1241
F31.764181943000001
asS'17338837'
p1242
(lp1243
F31.0856403662
asS'3169035458'
p1244
(lp1245
F46.015035464299999
asS'2951585327'
p1246
(lp1247
F21.000041213900001
asS'3307173220'
p1248
(lp1249
F23.437820784100001
asS'1004731904'
p1250
(lp1251
F25.3973136607
asS'840421620'
p1252
(lp1253
F22.462567185400001
asS'495413443'
p1254
(lp1255
F22.511138884899999
asS'134971190'
p1256
(lp1257
F32.048900894200003
asS'329959864'
p1258
(lp1259
F22.460683105600001
asS'2464554372'
p1260
(lp1261
F24.272503529400002
asS'56798817'
p1262
(lp1263
F36.676191586400002
asS'263391759'
p1264
(lp1265
F27.321090960300001
asS'2595010674'
p1266
(lp1267
F28.497066955899999
asS'148845013'
p1268
(lp1269
F32.745466364899997
asS'28332149'
p1270
(lp1271
F28.249105606099999
asS'1683366356'
p1272
(lp1273
F33.715983018000003
asS'2820596893'
p1274
(lp1275
F25.648014187099999
asS'517239908'
p1276
(lp1277
F22.689415911400001
asS'328457935'
p1278
(lp1279
F37.4582266914
asS'588654221'
p1280
(lp1281
F20.1555996753
asS'3165612010'
p1282
(lp1283
F37.603676090100002
asS'2296750843'
p1284
(lp1285
F26.5906138665
asS'423967218'
p1286
(lp1287
F28.006166785000001
asS'22833654'
p1288
(lp1289
F27.4789390999
asS'2414706632'
p1290
(lp1291
F24.142486633299999
asS'546258169'
p1292
(lp1293
F20.969661210000002
asS'820137715'
p1294
(lp1295
F28.135035622099998
asS'432048547'
p1296
(lp1297
F28.680194434699999
asS'972496296'
p1298
(lp1299
F30.369254553400001
asS'17044839'
p1300
(lp1301
F27.732607119000001
asS'494609110'
p1302
(lp1303
F27.256412334
asS'24239999'
p1304
(lp1305
F33.143389540800001
asS'1027438579'
p1306
(lp1307
F28.160712508700001
asS'1375437380'
p1308
(lp1309
F23.963501246500002
asS'2149752998'
p1310
(lp1311
F35.285146956200002
asS'489063004'
p1312
(lp1313
F34.014754583200002
asS'1630668877'
p1314
(lp1315
F24.433925758200001
asS'232788678'
p1316
(lp1317
F29.9714979892
asS'32673835'
p1318
(lp1319
F27.5488188052
asS'144918041'
p1320
(lp1321
F29.717291867299998
asS'1552225574'
p1322
(lp1323
F18.313176308799999
asS'713365316'
p1324
(lp1325
F32.312613566000003
asS'2739638030'
p1326
(lp1327
F34.699379810300002
asS'117105018'
p1328
(lp1329
F29.456956532300001
asS'3346463069'
p1330
(lp1331
F24.8537855521
asS'263977418'
p1332
(lp1333
F27.7705161053
asS'3270387492'
p1334
(lp1335
F32.377122841800002
asS'77013143'
p1336
(lp1337
F28.982696607600001
asS'1112609240'
p1338
(lp1339
F32.449721387099999
asS'2893372832'
p1340
(lp1341
F24.651716690299999
asS'52658734'
p1342
(lp1343
F29.140514757399998
asS'144570961'
p1344
(lp1345
F37.025972408000001
asS'341122817'
p1346
(lp1347
F18.219374606100001
asS'247108641'
p1348
(lp1349
F24.969900620699999
asS'2970468605'
p1350
(lp1351
F32.402766049199997
asS'31188140'
p1352
(lp1353
F29.461855902
asS'426967017'
p1354
(lp1355
F30.020688312699999
asS'1579845464'
p1356
(lp1357
F27.162584116600001
asS'540849868'
p1358
(lp1359
F29.3761589808
asS'555690810'
p1360
(lp1361
F33.8634637786
asS'493817448'
p1362
(lp1363
F24.937316934599998
asS'380221841'
p1364
(lp1365
F35.790827058399998
asS'395484842'
p1366
(lp1367
F35.989445265299999
asS'1361824520'
p1368
(lp1369
F24.730555904799999
asS'1099655371'
p1370
(lp1371
F27.1172475694
asS'405437713'
p1372
(lp1373
F27.7978765035
asS'20077515'
p1374
(lp1375
F34.959314302400003
asS'229588028'
p1376
(lp1377
F28.099475351799999
asS'1283021432'
p1378
(lp1379
F32.314511792700003
asS'850543202'
p1380
(lp1381
F24.269814629199999
asS'274816731'
p1382
(lp1383
F27.1442849765
asS'2582800071'
p1384
(lp1385
F27.757435107700001
asS'2602052260'
p1386
(lp1387
F38.293903651800001
asS'14250106'
p1388
(lp1389
F29.525886770300001
asS'250115148'
p1390
(lp1391
F30.2338256964
asS'1564167697'
p1392
(lp1393
F27.069789720700001
asS'467681653'
p1394
(lp1395
F26.874323139099999
asS'382151611'
p1396
(lp1397
F31.600528857
asS'115090735'
p1398
(lp1399
F28.5723669648
asS'2260439108'
p1400
(lp1401
F31.471049085400001
asS'471472958'
p1402
(lp1403
F28.927661904800001
asS'299453646'
p1404
(lp1405
F21.352259265600001
asS'2523704228'
p1406
(lp1407
F34.348423998800001
asS'437726498'
p1408
(lp1409
F31.086118961499999
asS'2985359568'
p1410
(lp1411
F27.548285905299998
asS'15800697'
p1412
(lp1413
F46.392362292500003
asS'1147734344'
p1414
(lp1415
F26.933524507600001
asS'1511351714'
p1416
(lp1417
F24.1108535139
asS'481610990'
p1418
(lp1419
F13
asS'245580162'
p1420
(lp1421
F32.217423806299998
asS'2160131833'
p1422
(lp1423
F25.150093504800001
asS'359301644'
p1424
(lp1425
F29.8490427813
asS'33214161'
p1426
(lp1427
F31.889803979
asS'142137035'
p1428
(lp1429
F28.253246915399998
asS'1507070148'
p1430
(lp1431
F26.430138769399999
asS'2201784097'
p1432
(lp1433
F21.0000925123
asS'17115086'
p1434
(lp1435
F40.302240418799997
asS'47179510'
p1436
(lp1437
F32.4463252153
asS'3341741285'
p1438
(lp1439
F42.360294195599998
asS'2295460021'
p1440
(lp1441
F32.664986672700003
asS'136901718'
p1442
(lp1443
F36.933292678699999
asS'350490772'
p1444
(lp1445
F23.145562359900001
asS'246798976'
p1446
(lp1447
F21.435644870400001
asS'30876286'
p1448
(lp1449
F30.064420507800001
asS'3018809280'
p1450
(lp1451
F22.291589858799998
asS'525714627'
p1452
(lp1453
F37.359026761199999
asS'1592530752'
p1454
(lp1455
F27.805749527700002
asS'2485098619'
p1456
(lp1457
F38.216508288599996
asS'1037787463'
p1458
(lp1459
F24.466127203999999
asS'3243962811'
p1460
(lp1461
F22.47805374
asS'299764235'
p1462
(lp1463
F28.604949894499999
asS'86212885'
p1464
(lp1465
F28.8020579481
asS'540930006'
p1466
(lp1467
F28.622453716100001
asS'21324543'
p1468
(lp1469
F53.590025575299997
asS'235321021'
p1470
(lp1471
F38.360132804000003
asS'258631265'
p1472
(lp1473
F25.813153462999999
asS'2991772466'
p1474
(lp1475
F27.9976716332
asS'2753473175'
p1476
(lp1477
F28.663464522400002
asS'264595508'
p1478
(lp1479
F32.494259567100002
asS'2208412405'
p1480
(lp1481
F28.946352747199999
asS'253299193'
p1482
(lp1483
F20.949607160199999
asS'2811455407'
p1484
(lp1485
F28.975363955500001
asS'3220984207'
p1486
(lp1487
F24.4196582772
asS'311595658'
p1488
(lp1489
F18.925949949500001
asS'1014842906'
p1490
(lp1491
F31.4185895645
asS'25221671'
p1492
(lp1493
F31.118259839
asS'2931714486'
p1494
(lp1495
F22.600482471500001
asS'388579974'
p1496
(lp1497
F46.709823735100002
asS'75845845'
p1498
(lp1499
F25.557677442999999
asS'556261687'
p1500
(lp1501
F37.129701152700001
asS'3169087759'
p1502
(lp1503
F31.7789364269
asS'1708964144'
p1504
(lp1505
F19.796097212999999
asS'2380284987'
p1506
(lp1507
F17.460059001200001
asS'1318840760'
p1508
(lp1509
F27.553012112600001
asS'124088515'
p1510
(lp1511
F23.1912903443
asS'29888040'
p1512
(lp1513
F35.282735099500002
asS'14839662'
p1514
(lp1515
F28.4452225651
asS'270763468'
p1516
(lp1517
F31.856867358700001
asS'875902951'
p1518
(lp1519
F32.519158531199999
asS'3071440342'
p1520
(lp1521
F23.798172620500001
asS'559530797'
p1522
(lp1523
F29.073229098500001
asS'23195603'
p1524
(lp1525
F39.087703699800002
asS'472722481'
p1526
(lp1527
F26.749853445100001
asS'484808445'
p1528
(lp1529
F23.842339837299999
asS'846466327'
p1530
(lp1531
F15.5763723696
asS'154183934'
p1532
(lp1533
F22.257364260599999
asS'122567822'
p1534
(lp1535
F31.912573135199999
asS'2811481382'
p1536
(lp1537
F21.714384923499999
asS'119182046'
p1538
(lp1539
F35.160821576499998
asS'305134790'
p1540
(lp1541
F25.2884812842
asS'37990581'
p1542
(lp1543
F29.179167641300001
asS'280073623'
p1544
(lp1545
F40.575714836899998
asS'864558457'
p1546
(lp1547
F27.8095295673
asS'609444482'
p1548
(lp1549
F17.2039470016
asS'137140274'
p1550
(lp1551
F65
asS'2764391073'
p1552
(lp1553
F23.942592791599999
asS'38459796'
p1554
(lp1555
F25.713319703100002
asS'210320751'
p1556
(lp1557
F28.476225247999999
asS'429341725'
p1558
(lp1559
F27.9461910516
asS'2410786244'
p1560
(lp1561
F19.289727628200001
asS'890240018'
p1562
(lp1563
F22.625967483299998
asS'21691269'
p1564
(lp1565
F28.403486057599999
asS'252599372'
p1566
(lp1567
F37.252322683700001
asS'724658586'
p1568
(lp1569
F27.520653929000002
asS'3153527292'
p1570
(lp1571
F30.995263998999999
asS'607325551'
p1572
(lp1573
F30.425916763299998
asS'951010796'
p1574
(lp1575
F25.341995823200001
asS'3000162348'
p1576
(lp1577
F13
asS'1340063743'
p1578
(lp1579
F39.894939132799998
asS'49797407'
p1580
(lp1581
F35.757024161300002
asS'3164117968'
p1582
(lp1583
F19.663954436099999
asS'2340798020'
p1584
(lp1585
F29.080977172499999
asS'3253109460'
p1586
(lp1587
F23.274458430999999
asS'19987328'
p1588
(lp1589
F31.986593087199999
asS'48263154'
p1590
(lp1591
F13.7671404516
asS'129235890'
p1592
(lp1593
F28.725323596399999
asS'158111087'
p1594
(lp1595
F33.096586715500003
asS'308212534'
p1596
(lp1597
F28.442130624699999
asS'884893716'
p1598
(lp1599
F30.0508210488
asS'2173032090'
p1600
(lp1601
F16.788782292499999
asS'212319151'
p1602
(lp1603
F18.849985240300001
asS'2543708726'
p1604
(lp1605
F27.150407624
asS'900604650'
p1606
(lp1607
F32.314005120899999
asS'2615319734'
p1608
(lp1609
F26.7008899056
asS'3187116042'
p1610
(lp1611
F29.721490085799999
asS'194619305'
p1612
(lp1613
F47.557816481700002
asS'1275150516'
p1614
(lp1615
F19.495346163200001
asS'3070481688'
p1616
(lp1617
F33.795337428800003
asS'431773157'
p1618
(lp1619
F30.245955145100002
asS'20776147'
p1620
(lp1621
F33.003423006799999
asS'30042350'
p1622
(lp1623
F33.072520425699999
asS'2354308160'
p1624
(lp1625
F21.022790197700001
asS'2725694319'
p1626
(lp1627
F24.828150545500002
asS'1968144578'
p1628
(lp1629
F23.731799972699999
asS'3201486555'
p1630
(lp1631
F44.366413249700003
asS'2851340937'
p1632
(lp1633
F37.886641561099999
asS'549863131'
p1634
(lp1635
F28.443736341099999
asS'245909009'
p1636
(lp1637
F32.4503292765
asS'520344647'
p1638
(lp1639
F23.118861632000002
asS'1290203400'
p1640
(lp1641
F33.413897676300003
asS'175499065'
p1642
(lp1643
F19.917133557500001
asS'37766774'
p1644
(lp1645
F36.054637101600001
asS'2563726591'
p1646
(lp1647
F32.022795362700002
asS'162967620'
p1648
(lp1649
F25.404758257499999
asS'3062055361'
p1650
(lp1651
F30.612706682100001
asS'495199212'
p1652
(lp1653
F18.772642620799999
asS'1710743832'
p1654
(lp1655
F13
asS'79894834'
p1656
(lp1657
F26.346610489
asS'46623658'
p1658
(lp1659
F32.263313697699999
asS'361375950'
p1660
(lp1661
F21.432472967100001
asS'1328073102'
p1662
(lp1663
F24.036625932300002
asS'2578857973'
p1664
(lp1665
F29.900642076
asS'415304375'
p1666
(lp1667
F28.2155230511
asS'3326271358'
p1668
(lp1669
F26.3519935769
asS'20587072'
p1670
(lp1671
F22.074822020500001
asS'991346778'
p1672
(lp1673
F24.788169851199999
asS'344865397'
p1674
(lp1675
F36.619236975
asS'2176958272'
p1676
(lp1677
F21.706569339000001
asS'3133025402'
p1678
(lp1679
F26.577573058999999
asS'296902102'
p1680
(lp1681
F22.618050009499999
asS'124735878'
p1682
(lp1683
F24.0624241117
asS'918502830'
p1684
(lp1685
F30.990835995000001
asS'3196531030'
p1686
(lp1687
F22.540088125600001
asS'198494857'
p1688
(lp1689
F34.785445210200002
asS'1650278431'
p1690
(lp1691
F32.264370091899998
asS'370540029'
p1692
(lp1693
F27.034942528799998
asS'16989970'
p1694
(lp1695
F37.153281564899999
asS'68126410'
p1696
(lp1697
F25.894040914200001
asS'3015981726'
p1698
(lp1699
F32.652713328700003
asS'487112770'
p1700
(lp1701
F29.615213427499999
asS'194663746'
p1702
(lp1703
F27.416493400299998
asS'3182576161'
p1704
(lp1705
F30.983417029600002
asS'70247351'
p1706
(lp1707
F29.286505469800002
asS'463054608'
p1708
(lp1709
F34.705759383100002
asS'3354224537'
p1710
(lp1711
F29.216367481799999
asS'2418259723'
p1712
(lp1713
F21.078362197499999
asS'15907183'
p1714
(lp1715
F25.869047512400002
asS'870988388'
p1716
(lp1717
F33.737236342999999
asS'384341065'
p1718
(lp1719
F28.036165921199999
asS'1470608390'
p1720
(lp1721
F34.256200760600002
asS'33760345'
p1722
(lp1723
F24.199924997299998
asS'3248100462'
p1724
(lp1725
F30.692338486499999
asS'90359845'
p1726
(lp1727
F29.842286698999999
asS'2714514184'
p1728
(lp1729
F54.295057528199997
asS'413729388'
p1730
(lp1731
F25.250963154099999
asS'137455850'
p1732
(lp1733
F26.013862604
asS'44099200'
p1734
(lp1735
F37.370172533500003
asS'3103717477'
p1736
(lp1737
F28.913460121899998
asS'27198742'
p1738
(lp1739
F32.333291928500003
asS'311654967'
p1740
(lp1741
F34.774066867499997
asS'16180559'
p1742
(lp1743
F31.3734238893
asS'146712559'
p1744
(lp1745
F22.111921758699999
asS'2412448794'
p1746
(lp1747
F24.694097214999999
asS'3056142064'
p1748
(lp1749
F34.342548423799997
asS'27304198'
p1750
(lp1751
F19.498690357600001
asS'303665229'
p1752
(lp1753
F26.437425459
asS'167282831'
p1754
(lp1755
F20.9830580303
asS'18205761'
p1756
(lp1757
F31.0162783442
asS'2744430555'
p1758
(lp1759
F35.439633670900001
asS'913515602'
p1760
(lp1761
F43.247817636699999
asS'69237755'
p1762
(lp1763
F23.702098893399999
asS'550423777'
p1764
(lp1765
F25.551123406199999
asS'2264363900'
p1766
(lp1767
F21.9507181719
asS'1166006527'
p1768
(lp1769
F15.6766256256
asS'1043713747'
p1770
(lp1771
F23.2372516125
asS'1871604686'
p1772
(lp1773
F28.985976132800001
asS'572784902'
p1774
(lp1775
F26.790113963
asS'3000884566'
p1776
(lp1777
F27.7703046974
asS'711796142'
p1778
(lp1779
F22.9135367911
asS'2903194852'
p1780
(lp1781
F35.384577356999998
asS'121656624'
p1782
(lp1783
F27.575076639799999
asS'802261897'
p1784
(lp1785
F32.748891572600002
asS'1169337758'
p1786
(lp1787
F21.517317931800001
asS'3260191711'
p1788
(lp1789
F17.704119383999998
asS'462114432'
p1790
(lp1791
F18.1545254808
asS'205314540'
p1792
(lp1793
F27.155084224199999
asS'56408045'
p1794
(lp1795
F32.641715162700002
asS'1675067046'
p1796
(lp1797
F31.479881783700002
asS'173789958'
p1798
(lp1799
F24.466142368500002
asS'2323947968'
p1800
(lp1801
F24.686442271800001
asS'524866673'
p1802
(lp1803
F21.722366417100002
asS'17283062'
p1804
(lp1805
F55.443088103999997
asS'2388403569'
p1806
(lp1807
F22.791994520399999
asS'483085183'
p1808
(lp1809
F22.611375349599999
asS'45302861'
p1810
(lp1811
F33.481158432500003
asS'501234848'
p1812
(lp1813
F29.856497939499999
asS'2772622527'
p1814
(lp1815
F31.367522638000001
asS'3027683998'
p1816
(lp1817
F22.049277674300001
asS'183753455'
p1818
(lp1819
F35.245707213199999
asS'81127761'
p1820
(lp1821
F24.714315685300001
asS'2316983790'
p1822
(lp1823
F24.990652848100002
asS'848084893'
p1824
(lp1825
F38.368835105099997
asS'348509295'
p1826
(lp1827
F27.700322205100001
asS'1914506792'
p1828
(lp1829
F26.6570501486
asS'131530690'
p1830
(lp1831
F28.732712207199999
asS'2284850010'
p1832
(lp1833
F24.643846488200001
asS'484514913'
p1834
(lp1835
F28.314366636399999
asS'429523010'
p1836
(lp1837
F22.301450013099998
asS'107168854'
p1838
(lp1839
F28.851211815100001
asS'158033670'
p1840
(lp1841
F34.155095459199998
asS'423670056'
p1842
(lp1843
F33.492795540400003
asS'127374813'
p1844
(lp1845
F35.946225836799997
asS'245308991'
p1846
(lp1847
F36.916860127699998
asS'290570868'
p1848
(lp1849
F24.9331222054
asS'52702957'
p1850
(lp1851
F30.344037998000001
asS'2650787508'
p1852
(lp1853
F25.508814306200001
asS'1129762164'
p1854
(lp1855
F22.658040671999998
asS'248522239'
p1856
(lp1857
F29.182458348699999
asS'18086787'
p1858
(lp1859
F33.991104325000002
asS'3158661520'
p1860
(lp1861
F24.6424063242
asS'93891664'
p1862
(lp1863
F33.157567419800003
asS'269618359'
p1864
(lp1865
F29.409375622500001
asS'2262555338'
p1866
(lp1867
F33.820000972999999
asS'14664785'
p1868
(lp1869
F27.202824024000002
asS'238717022'
p1870
(lp1871
F31.0832259423
asS'17362917'
p1872
(lp1873
F26.898569645799999
asS'104048643'
p1874
(lp1875
F22.5033434202
asS'56811428'
p1876
(lp1877
F34.314292301000002
asS'2353473133'
p1878
(lp1879
F28.810634984299998
asS'554641119'
p1880
(lp1881
F28.781061199700002
asS'176187991'
p1882
(lp1883
F18.324089540300001
asS'17237178'
p1884
(lp1885
F25.353708846100002
asS'1167357150'
p1886
(lp1887
F25.7726405495
asS'610795492'
p1888
(lp1889
F30.171094198900001
asS'22730618'
p1890
(lp1891
F27.604171646600001
asS'614730516'
p1892
(lp1893
F23.086404587200001
asS'23265506'
p1894
(lp1895
F29.2747343003
asS'3148618465'
p1896
(lp1897
F24.8459673895
asS'538785862'
p1898
(lp1899
F32.0244931772
asS'305506218'
p1900
(lp1901
F29.822137571999999
asS'3361503233'
p1902
(lp1903
F26.2253513884
asS'718982780'
p1904
(lp1905
F19.7049057304
asS'38723680'
p1906
(lp1907
F30.943689307500001
asS'120234291'
p1908
(lp1909
F27.299996473099998
asS'72183405'
p1910
(lp1911
F35.374782690099998
asS'3231010562'
p1912
(lp1913
F23.256694949
asS'3026078916'
p1914
(lp1915
F27.266081850300001
asS'2206484977'
p1916
(lp1917
F26.232291726100001
asS'3352627101'
p1918
(lp1919
F36.138916547699999
asS'249782044'
p1920
(lp1921
F30.986373815699999
asS'456636692'
p1922
(lp1923
F22.2598261839
asS'435464834'
p1924
(lp1925
F25.6118566253
asS'2868906035'
p1926
(lp1927
F27.559535529800002
asS'728959290'
p1928
(lp1929
F28.125260217600001
asS'263748985'
p1930
(lp1931
F27.539873674900001
asS'987715628'
p1932
(lp1933
F33.232888168700001
asS'1703926747'
p1934
(lp1935
F30.348766266199998
asS'44245603'
p1936
(lp1937
F30.179862273000001
asS'2363509219'
p1938
(lp1939
F28.955932329300001
asS'2333881903'
p1940
(lp1941
F26.688052068000001
asS'2192174179'
p1942
(lp1943
F34.694098437400001
asS'3018332599'
p1944
(lp1945
F19.602439154599999
asS'22720990'
p1946
(lp1947
F31.625330486900001
asS'157373298'
p1948
(lp1949
F26.30035693
asS'294991606'
p1950
(lp1951
F37.378558057200003
asS'105030888'
p1952
(lp1953
F26.672373488400002
asS'292671486'
p1954
(lp1955
F27.374523506500001
asS'2269197391'
p1956
(lp1957
F34.104115249400003
asS'135586989'
p1958
(lp1959
F29.707103486800001
asS'171561479'
p1960
(lp1961
F24.544469121900001
asS'106211842'
p1962
(lp1963
F39.4229364726
asS'446526466'
p1964
(lp1965
F22.1476639069
asS'1399721636'
p1966
(lp1967
F26.913734287600001
asS'454330756'
p1968
(lp1969
F23.853413513900001
asS'921437132'
p1970
(lp1971
F31.8378071918
asS'52779975'
p1972
(lp1973
F30.682718184700001
asS'2756873076'
p1974
(lp1975
F23.780406258399999
asS'20852423'
p1976
(lp1977
F29.378373634199999
asS'1676065513'
p1978
(lp1979
F27.978388731700001
asS'2916949294'
p1980
(lp1981
F20.202621601800001
asS'954497179'
p1982
(lp1983
F23.568997144699999
asS'373505326'
p1984
(lp1985
F32.942047517900001
asS'558969189'
p1986
(lp1987
F26.212663480300002
asS'16607017'
p1988
(lp1989
F18.827143214399999
asS'112628901'
p1990
(lp1991
F32.173298513399999
asS'151284118'
p1992
(lp1993
F30.975889801600001
asS'171548178'
p1994
(lp1995
F35.243050107199998
asS'144317147'
p1996
(lp1997
F20.884957475
asS'312964626'
p1998
(lp1999
F26.6539487521
asS'2584178036'
p2000
(lp2001
F34.929192968599999
asS'477889371'
p2002
(lp2003
F28.9080118203
asS'18258975'
p2004
(lp2005
F28.344000877700001
asS'236728688'
p2006
(lp2007
F23.2737816028
asS'3187453725'
p2008
(lp2009
F29.692398499900001
asS'16007872'
p2010
(lp2011
F30.099648437599999
asS'547260331'
p2012
(lp2013
F22.517463555100001
asS'28339731'
p2014
(lp2015
F27.471871185800001
asS'423022414'
p2016
(lp2017
F22.7717960011
asS'1891556472'
p2018
(lp2019
F24.897175944200001
asS'134228450'
p2020
(lp2021
F31.333903498600002
asS'530872862'
p2022
(lp2023
F31.7501566784
asS'15726358'
p2024
(lp2025
F27.934581202299999
asS'17437437'
p2026
(lp2027
F26.028508425799998
asS'944224682'
p2028
(lp2029
F33.406231471200002
asS'2972588327'
p2030
(lp2031
F37.165139291300001
asS'1683575401'
p2032
(lp2033
F29.810328933600001
asS'296285008'
p2034
(lp2035
F33.471861038299998
asS'88861467'
p2036
(lp2037
F25.9260338152
asS'3033001737'
p2038
(lp2039
F22.239285080599998
asS'22258499'
p2040
(lp2041
F32.611667651200001
asS'474533802'
p2042
(lp2043
F29.870784330300001
asS'80473558'
p2044
(lp2045
F22.169930948000001
asS'1346952402'
p2046
(lp2047
F33.023933172900001
asS'27532984'
p2048
(lp2049
F42.791440587300002
asS'2969884610'
p2050
(lp2051
F32.060076445900002
asS'1831031478'
p2052
(lp2053
F20.733366741299999
asS'1332005876'
p2054
(lp2055
F27.306167862599999
asS'480492819'
p2056
(lp2057
F31.985870406
asS'315878798'
p2058
(lp2059
F31.0258602804
asS'147290864'
p2060
(lp2061
F32.122160751899997
asS'24192269'
p2062
(lp2063
F34.483091833800003
asS'16349648'
p2064
(lp2065
F30.935017266999999
asS'299776432'
p2066
(lp2067
F30.089755005699999
asS'632470518'
p2068
(lp2069
F18.632583591700001
asS'2886253346'
p2070
(lp2071
F24.290749644800002
asS'375549185'
p2072
(lp2073
F31.800580905899999
asS'984614636'
p2074
(lp2075
F34.439464471800001
asS'2474024125'
p2076
(lp2077
F27.848670677000001
asS'319931473'
p2078
(lp2079
F30.7323820931
asS'2686561322'
p2080
(lp2081
F31.2463254279
asS'899135509'
p2082
(lp2083
F24.247839238200001
asS'3025897219'
p2084
(lp2085
F25.343197383100001
asS'3225095235'
p2086
(lp2087
F24.082793469199999
asS'299201978'
p2088
(lp2089
F31.8970533066
asS'2707065429'
p2090
(lp2091
F28.5359557401
asS'802890950'
p2092
(lp2093
F33.657768123799997
asS'54682894'
p2094
(lp2095
F32.683677038200003
asS'3343771132'
p2096
(lp2097
F17.817098805600001
asS'2346722716'
p2098
(lp2099
F26.289175543900001
asS'25744258'
p2100
(lp2101
F28.804466117499999
asS'275648732'
p2102
(lp2103
F27.1392440407
asS'56396769'
p2104
(lp2105
F31.900642681699999
asS'839241362'
p2106
(lp2107
F21.050759228
asS'109071016'
p2108
(lp2109
F23.4619994203
asS'15278752'
p2110
(lp2111
F34.701352167899998
asS'3330251014'
p2112
(lp2113
F21.009382072400001
asS'1382696899'
p2114
(lp2115
F31.860606333300002
asS'2279617531'
p2116
(lp2117
F25.899392795400001
asS'891606402'
p2118
(lp2119
F30.223183349999999
asS'17732518'
p2120
(lp2121
F28.962774388300002
asS'1534688612'
p2122
(lp2123
F34.024204861800001
asS'20756583'
p2124
(lp2125
F44.624905986500004
asS'178102854'
p2126
(lp2127
F30.9489459182
asS'126826923'
p2128
(lp2129
F23.136747325000002
asS'2367526415'
p2130
(lp2131
F17.8484152001
asS'253356099'
p2132
(lp2133
F29.336829224399999
asS'461931762'
p2134
(lp2135
F30.098420658799999
asS'118915743'
p2136
(lp2137
F28.9595791371
asS'116233290'
p2138
(lp2139
F33.395270362600002
asS'887193084'
p2140
(lp2141
F19.3846587333
asS'3099491228'
p2142
(lp2143
F20.263228353900001
asS'2375662682'
p2144
(lp2145
F31.5133294854
asS'2675442426'
p2146
(lp2147
F27.231717985700001
asS'192014466'
p2148
(lp2149
F27.0632148987
asS'15974515'
p2150
(lp2151
F26.5129563801
asS'26254697'
p2152
(lp2153
F15.159783946799999
asS'25409581'
p2154
(lp2155
F24.628563891500001
asS'273683682'
p2156
(lp2157
F13.141140460800001
asS'17674757'
p2158
(lp2159
F32.760492080100001
asS'2332587188'
p2160
(lp2161
F27.012221975999999
asS'774926515'
p2162
(lp2163
F22.7832617754
asS'140480683'
p2164
(lp2165
F19.549908381200002
asS'3304420079'
p2166
(lp2167
F19.2769685815
asS'65210574'
p2168
(lp2169
F30.807147775499999
asS'762534008'
p2170
(lp2171
F24.241848554099999
asS'80904174'
p2172
(lp2173
F28.2018493267
asS'3163628732'
p2174
(lp2175
F37.395931126299999
asS'3323578618'
p2176
(lp2177
F25.205793164199999
asS'1552520972'
p2178
(lp2179
F19.686795240999999
asS'3364105379'
p2180
(lp2181
F33.4317627649
asS'436894497'
p2182
(lp2183
F24.6606919406
asS'1496545255'
p2184
(lp2185
F21.678550274100001
asS'1299258126'
p2186
(lp2187
F33.007549666000003
asS'1286987072'
p2188
(lp2189
F33.462571847200003
asS'21410672'
p2190
(lp2191
F37.4930608333
asS'3306173819'
p2192
(lp2193
F33.603110390099999
asS'68599588'
p2194
(lp2195
F43.275937072300003
asS'1366273350'
p2196
(lp2197
F19.359341975
asS'2989219299'
p2198
(lp2199
F25.998967101600002
asS'31631820'
p2200
(lp2201
F19.773314322899999
asS'3232681596'
p2202
(lp2203
F23.917153460800002
asS'2518201555'
p2204
(lp2205
F23.9696757844
asS'636611445'
p2206
(lp2207
F37.427354033699999
asS'481713367'
p2208
(lp2209
F32.558429728500002
asS'3294749086'
p2210
(lp2211
F41.562603854000002
asS'2429053827'
p2212
(lp2213
F20.964790779200001
asS'794401550'
p2214
(lp2215
F34.640671185099997
asS'2973253416'
p2216
(lp2217
F17.4081218245
asS'1952528058'
p2218
(lp2219
F30.540271858200001
asS'2764409537'
p2220
(lp2221
F25.336765399400001
asS'37762125'
p2222
(lp2223
F23.2511111518
asS'348812932'
p2224
(lp2225
F26.010257113400002
asS'937484864'
p2226
(lp2227
F27.7248310642
asS'27593757'
p2228
(lp2229
F28.671771192200001
asS'704219604'
p2230
(lp2231
F34.380243203299997
asS'17067404'
p2232
(lp2233
F24.609600261299999
asS'84706649'
p2234
(lp2235
F26.263069426200001
asS'319991608'
p2236
(lp2237
F32.178046810799998
asS'229290803'
p2238
(lp2239
F26.874697738199998
asS'25963806'
p2240
(lp2241
F33.245167094499998
asS'3060293566'
p2242
(lp2243
F25.6225023292
asS'3266810329'
p2244
(lp2245
F27.361607643500001
asS'32419017'
p2246
(lp2247
F33.141974495699998
asS'282828453'
p2248
(lp2249
F19.247412775200001
asS'27203795'
p2250
(lp2251
F23.330152209000001
asS'14959367'
p2252
(lp2253
F45.982955280900001
asS'28134331'
p2254
(lp2255
F25.150841402800001
asS'39314178'
p2256
(lp2257
F33.557703703599998
asS'3075776587'
p2258
(lp2259
F24.674748452599999
asS'2173775016'
p2260
(lp2261
F20.1274367764
asS'1255179128'
p2262
(lp2263
F31.8654277503
asS'1072596854'
p2264
(lp2265
F31.809305407099998
asS'969566850'
p2266
(lp2267
F22.579172771900001
asS'12626962'
p2268
(lp2269
F33.5062878102
asS'415151129'
p2270
(lp2271
F30.044681245700001
asS'15995683'
p2272
(lp2273
F30.266566497900001
asS'2378184751'
p2274
(lp2275
F21.2361183774
asS'2985987137'
p2276
(lp2277
F30.767346768100001
asS'1489114434'
p2278
(lp2279
F26.020827271400002
asS'949555026'
p2280
(lp2281
F23.364390910800001
asS'2990094652'
p2282
(lp2283
F22.258528198299999
asS'34399693'
p2284
(lp2285
F24.009641440399999
asS'363214023'
p2286
(lp2287
F30.703663281400001
asS'519728191'
p2288
(lp2289
F28.103368719399999
asS'76009410'
p2290
(lp2291
F30.560591255199999
asS'240844856'
p2292
(lp2293
F27.427257389400001
asS'588097287'
p2294
(lp2295
F31.6485802632
asS'822476942'
p2296
(lp2297
F26.268801871699999
asS'621996473'
p2298
(lp2299
F31.231229044700001
asS'2759766645'
p2300
(lp2301
F13
asS'886400342'
p2302
(lp2303
F19.2804562016
asS'3220693453'
p2304
(lp2305
F25.9909682308
asS'185364448'
p2306
(lp2307
F26.015951150199999
asS'580164192'
p2308
(lp2309
F33.946372755399999
asS'2151699396'
p2310
(lp2311
F28.680908617699998
asS'400276391'
p2312
(lp2313
F26.825057062300001
asS'383990793'
p2314
(lp2315
F30.8911460912
asS'18277208'
p2316
(lp2317
F30.461444549599999
asS'53905837'
p2318
(lp2319
F26.5411026998
asS'104466132'
p2320
(lp2321
F29.567673659499999
asS'2987684469'
p2322
(lp2323
F31.9459069398
asS'311521075'
p2324
(lp2325
F23.063863945600001
asS'111631919'
p2326
(lp2327
F26.3704523187
asS'2715213326'
p2328
(lp2329
F28.603269582199999
asS'2364629671'
p2330
(lp2331
F27.213172643899998
asS'478242108'
p2332
(lp2333
F29.599118026300001
asS'52728606'
p2334
(lp2335
F25.667127798599999
asS'2319773719'
p2336
(lp2337
F21.283643646600002
asS'154405568'
p2338
(lp2339
F30.654354807000001
asS'22686311'
p2340
(lp2341
F34.679780016099997
asS'119247289'
p2342
(lp2343
F23.4628691122
asS'332003842'
p2344
(lp2345
F28.664507272200002
asS'356026306'
p2346
(lp2347
F24.5516186875
asS'22108814'
p2348
(lp2349
F26.531968694900002
asS'1239062041'
p2350
(lp2351
F28.561773659
asS'422764873'
p2352
(lp2353
F32.971036312599999
asS'803085008'
p2354
(lp2355
F19.960045806499998
asS'17934423'
p2356
(lp2357
F31.2876323021
asS'853150752'
p2358
(lp2359
F29.1011238609
asS'569175899'
p2360
(lp2361
F31.607585229600001
asS'173725035'
p2362
(lp2363
F23.718131264499998
asS'1475383028'
p2364
(lp2365
F35.749665548499998
asS'3271904619'
p2366
(lp2367
F21.100232485799999
asS'3022435081'
p2368
(lp2369
F27.065610399400001
asS'1191210901'
p2370
(lp2371
F29.549394615099999
asS'2922002179'
p2372
(lp2373
F25.566563609100001
asS'45661957'
p2374
(lp2375
F33.043004886799999
asS'1161032318'
p2376
(lp2377
F15.897350467500001
asS'448888098'
p2378
(lp2379
F24.8770719294
asS'2583797636'
p2380
(lp2381
F31.878215609600002
asS'239281295'
p2382
(lp2383
F24.594070389300001
asS'20270883'
p2384
(lp2385
F34.273579528299997
asS'56906548'
p2386
(lp2387
F29.0732219884
asS'115729308'
p2388
(lp2389
F28.487820233000001
asS'203351820'
p2390
(lp2391
F29.355503432199999
asS'487933376'
p2392
(lp2393
F25.395188765099999
asS'3315650567'
p2394
(lp2395
F34.299321724400002
asS'1682038578'
p2396
(lp2397
F24.367555083199999
asS'3007482001'
p2398
(lp2399
F27.234749948200001
asS'2519552569'
p2400
(lp2401
F30.143975491999999
asS'1577662128'
p2402
(lp2403
F21.594370856699999
asS'125896734'
p2404
(lp2405
F31.757274915699998
asS'103774220'
p2406
(lp2407
F16.290065521999999
asS'3022193149'
p2408
(lp2409
F29.601138716800001
asS'82915010'
p2410
(lp2411
F32.172733728899999
asS'976530702'
p2412
(lp2413
F27.911532868399998
asS'74513551'
p2414
(lp2415
F27.718310473199999
asS'1099214587'
p2416
(lp2417
F28.152158517499998
asS'58539856'
p2418
(lp2419
F29.3625012756
asS'31489591'
p2420
(lp2421
F37.1735796846
asS'2366465875'
p2422
(lp2423
F28.089590816000001
asS'2841993261'
p2424
(lp2425
F28.9239997749
asS'426625018'
p2426
(lp2427
F33.718631887299999
asS'3004439539'
p2428
(lp2429
F34.824902113500002
asS'3346766793'
p2430
(lp2431
F25.711226230200001
asS'27598939'
p2432
(lp2433
F36.199710263900002
asS'19518422'
p2434
(lp2435
F31.444415564500002
asS'253860949'
p2436
(lp2437
F26.809194873700001
asS'3184650450'
p2438
(lp2439
F24.683135285500001
asS'1428039019'
p2440
(lp2441
F30.0837239958
asS'384316868'
p2442
(lp2443
F22.649282532099999
asS'564060759'
p2444
(lp2445
F19.869111644899998
asS'3237187123'
p2446
(lp2447
F25.351656077200001
asS'3354382294'
p2448
(lp2449
F19.136825773199998
asS'38057219'
p2450
(lp2451
F25.093839820399999
asS'20912252'
p2452
(lp2453
F31.5392047339
asS'391430036'
p2454
(lp2455
F33.585331281000002
asS'420013806'
p2456
(lp2457
F22.788752009300001
asS'3253285213'
p2458
(lp2459
F25.611732137899999
asS'1168614020'
p2460
(lp2461
F43.220543637799999
asS'184939350'
p2462
(lp2463
F40.624087990100001
asS'535681746'
p2464
(lp2465
F33.660831172400002
asS'595997188'
p2466
(lp2467
F14.6593788106
asS'1550522623'
p2468
(lp2469
F27.443813177599999
asS'409379431'
p2470
(lp2471
F32.794028369199999
asS'34997182'
p2472
(lp2473
F31.016047103799998
asS'3069601323'
p2474
(lp2475
F29.638985718899999
asS'1283500518'
p2476
(lp2477
F33.935867414900002
asS'364691947'
p2478
(lp2479
F21.8192537595
asS'3105073274'
p2480
(lp2481
F20.329771189599999
asS'33051120'
p2482
(lp2483
F32.104866965100001
asS'72454254'
p2484
(lp2485
F33.342230452700001
asS'841704092'
p2486
(lp2487
F32.366443854800004
asS'2586164682'
p2488
(lp2489
F24.272186877700001
asS'952847162'
p2490
(lp2491
F27.263599701099999
asS'2746845258'
p2492
(lp2493
F25.6861105485
asS'2250493751'
p2494
(lp2495
F21.993646985600002
asS'2771919401'
p2496
(lp2497
F17.627296481199998
asS'2735705952'
p2498
(lp2499
F30.416022809400001
asS'3099776112'
p2500
(lp2501
F27.300067507000001
asS'146992589'
p2502
(lp2503
F18.5579966795
asS'2811624648'
p2504
(lp2505
F24.040193348700001
asS'300182014'
p2506
(lp2507
F28.3620221921
asS'35627887'
p2508
(lp2509
F27.653795524900001
asS'707140640'
p2510
(lp2511
F28.747270356600001
asS'951063234'
p2512
(lp2513
F19.469611736800001
asS'25398845'
p2514
(lp2515
F22.7746946414
asS'122974278'
p2516
(lp2517
F19.327286003899999
asS'142642716'
p2518
(lp2519
F28.8873377036
asS'226479824'
p2520
(lp2521
F23.754800113000002
asS'1242410526'
p2522
(lp2523
F29.616143004800001
asS'931286316'
p2524
(lp2525
F21.1676386631
asS'380274414'
p2526
(lp2527
F22.320457585300002
asS'2971403851'
p2528
(lp2529
F37.744835210300003
asS'20688492'
p2530
(lp2531
F45.176519557399999
asS'3345128776'
p2532
(lp2533
F22.370461270300002
asS'2161298598'
p2534
(lp2535
F32.035480117600002
asS'2857178954'
p2536
(lp2537
F17.6275688132
asS'2970486053'
p2538
(lp2539
F32.402766049199997
asS'28246428'
p2540
(lp2541
F31.418653665699999
asS'3076256505'
p2542
(lp2543
F24.619358392300001
asS'20275358'
p2544
(lp2545
F31.723634186200002
asS'603073691'
p2546
(lp2547
F34.693597963999999
asS'815977938'
p2548
(lp2549
F28.366432694099998
asS'2685871154'
p2550
(lp2551
F23.2709795482
asS'2727546311'
p2552
(lp2553
F27.2834394622
asS'2564535115'
p2554
(lp2555
F34.517742507599998
asS'805335157'
p2556
(lp2557
F30.306989610199999
asS'377775232'
p2558
(lp2559
F35.391105037599999
asS'754060742'
p2560
(lp2561
F25.1127508163
asS'329137978'
p2562
(lp2563
F36.449771077299999
asS'3087709502'
p2564
(lp2565
F24.698577948800001
asS'3158995731'
p2566
(lp2567
F23.937142766800001
asS'3243259442'
p2568
(lp2569
F27.147687886
asS'3132637902'
p2570
(lp2571
F30.363138624000001
asS'3081503914'
p2572
(lp2573
F30.8739460177
asS'444284249'
p2574
(lp2575
F34.899844430100003
asS'231541352'
p2576
(lp2577
F30.490523069200002
asS'2438840592'
p2578
(lp2579
F25.263917210999999
asS'1737013177'
p2580
(lp2581
F18.2759020612
asS'17791954'
p2582
(lp2583
F28.942547315199999
asS'158163008'
p2584
(lp2585
F20.887583462399999
asS'2766766785'
p2586
(lp2587
F21.325703878999999
asS'12814702'
p2588
(lp2589
F28.503138020200002
asS'45861294'
p2590
(lp2591
F24.1032657005
asS'3267764497'
p2592
(lp2593
F32.467435134399999
asS'1686369542'
p2594
(lp2595
F33.267982619100003
asS'574311668'
p2596
(lp2597
F18.306327721300001
asS'924604970'
p2598
(lp2599
F20.784238190300002
asS'311740717'
p2600
(lp2601
F27.934207067700001
asS'865637048'
p2602
(lp2603
F31.0692023097
asS'22972142'
p2604
(lp2605
F32.114031578899997
asS'3266889440'
p2606
(lp2607
F22.692267971700002
asS'1110629412'
p2608
(lp2609
F25.777124366100001
asS'3185053168'
p2610
(lp2611
F24.236181465600001
asS'3080919807'
p2612
(lp2613
F24.836898142599999
asS'54938472'
p2614
(lp2615
F23.811679508299999
asS'1442872940'
p2616
(lp2617
F34.046604037000002
asS'416009248'
p2618
(lp2619
F32.163724104700002
asS'19955349'
p2620
(lp2621
F28.798705037600001
asS'27320992'
p2622
(lp2623
F25.0445786545
asS'1657033226'
p2624
(lp2625
F23.428316955300001
asS'7790622'
p2626
(lp2627
F30.901969835199999
asS'16485255'
p2628
(lp2629
F32.275386790399999
asS'1288966135'
p2630
(lp2631
F22.023866295400001
asS'463916844'
p2632
(lp2633
F30.6784293503
asS'1275194059'
p2634
(lp2635
F18.785398985200001
asS'260527870'
p2636
(lp2637
F34.047208644100003
asS'84599864'
p2638
(lp2639
F35.7804769014
asS'1296325968'
p2640
(lp2641
F31.184766979900001
asS'365286256'
p2642
(lp2643
F30.580353801600001
asS'445412046'
p2644
(lp2645
F22.5189468835
asS'29553855'
p2646
(lp2647
F30.153887805299998
asS'220304072'
p2648
(lp2649
F25.945951779800001
asS'140989303'
p2650
(lp2651
F18.9209741765
asS'617853207'
p2652
(lp2653
F20.942973290899999
asS'2658420401'
p2654
(lp2655
F19.339962307299999
asS'1119574238'
p2656
(lp2657
F28.501071485499999
asS'3279650217'
p2658
(lp2659
F28.324761472999999
asS'457997085'
p2660
(lp2661
F26.058987934400001
asS'617669968'
p2662
(lp2663
F36.763051369199999
asS'3000093281'
p2664
(lp2665
F24.629239849600001
asS'311856115'
p2666
(lp2667
F28.3616068095
asS'174111162'
p2668
(lp2669
F28.872168390399999
asS'179075185'
p2670
(lp2671
F26.962755535900001
asS'611937922'
p2672
(lp2673
F30.290590268100001
asS'257114811'
p2674
(lp2675
F18.713458429100001
asS'2858345604'
p2676
(lp2677
F29.066966880900001
asS'18204607'
p2678
(lp2679
F36.403853864399998
asS'78776348'
p2680
(lp2681
F27.391342817000002
asS'70944770'
p2682
(lp2683
F29.861477877700001
asS'1046114347'
p2684
(lp2685
F27.928318125699999
asS'3254964078'
p2686
(lp2687
F31.3771559638
asS'69099998'
p2688
(lp2689
F34.044082626600002
asS'3249398100'
p2690
(lp2691
F28.044124482299999
asS'417562267'
p2692
(lp2693
F30.655785267399999
asS'816840528'
p2694
(lp2695
F38.4419683757
asS'30421467'
p2696
(lp2697
F32.877129649799997
asS'39857486'
p2698
(lp2699
F39.0495902069
asS'397511255'
p2700
(lp2701
F38.131398630200003
asS'569581021'
p2702
(lp2703
F36.110476846499999
asS'295092700'
p2704
(lp2705
F30.3611201145
asS'3315006868'
p2706
(lp2707
F28.646310428700001
asS'248858868'
p2708
(lp2709
F32.534030283600003
asS'938073644'
p2710
(lp2711
F26.514649425199998
asS'822444836'
p2712
(lp2713
F26.187987211300001
asS'14394248'
p2714
(lp2715
F31.783591395999998
asS'2467279700'
p2716
(lp2717
F15.9072493194
asS'56483993'
p2718
(lp2719
F16.945741704500001
asS'2945993432'
p2720
(lp2721
F21.948116946500001
asS'234650609'
p2722
(lp2723
F33.877776906400001
asS'2524274756'
p2724
(lp2725
F22.347541762100001
asS'1952273347'
p2726
(lp2727
F22.975998900099999
asS'1629242024'
p2728
(lp2729
F29.272529475900001
asS'24487817'
p2730
(lp2731
F26.243024438500001
asS'27371671'
p2732
(lp2733
F26.346431754699999
asS'28027698'
p2734
(lp2735
F28.509633811600001
asS'537551503'
p2736
(lp2737
F38.549759355600003
asS'98495253'
p2738
(lp2739
F26.9923056475
asS'3122409107'
p2740
(lp2741
F19.784997072500001
asS'1069761618'
p2742
(lp2743
F23.064309167899999
asS'14133418'
p2744
(lp2745
F30.985923942900001
asS'2455822425'
p2746
(lp2747
F33.580970145400002
asS'1528718839'
p2748
(lp2749
F28.001356829999999
asS'3091521770'
p2750
(lp2751
F32.082695171499999
asS'2559582960'
p2752
(lp2753
F30.009938315900001
asS'551176355'
p2754
(lp2755
F35.380769737900003
asS'187958175'
p2756
(lp2757
F29.540995163400002
asS'3095274289'
p2758
(lp2759
F26.5287841695
asS'2594824381'
p2760
(lp2761
F21.621240688
asS'2979127809'
p2762
(lp2763
F27.5789268013
asS'20165785'
p2764
(lp2765
F30.1119758074
asS'2274042164'
p2766
(lp2767
F25.920663236199999
asS'167489997'
p2768
(lp2769
F31.206303527100001
asS'16047377'
p2770
(lp2771
F32.950405927799999
asS'2282815632'
p2772
(lp2773
F30.286771165499999
asS'2997750360'
p2774
(lp2775
F30.127134996799999
asS'2410623764'
p2776
(lp2777
F24.9795942955
asS'513787993'
p2778
(lp2779
F27.433991455800001
asS'2738526278'
p2780
(lp2781
F32.726222116499997
asS'462527860'
p2782
(lp2783
F21.648384386299998
asS'712746949'
p2784
(lp2785
F32.933582677300002
asS'430851439'
p2786
(lp2787
F31.116604678000002
asS'67873734'
p2788
(lp2789
F23.8350714382
asS'17167572'
p2790
(lp2791
F27.356292877200001
asS'389669612'
p2792
(lp2793
F22.0038933521
asS'36024535'
p2794
(lp2795
F22.2221634769
asS'298738919'
p2796
(lp2797
F25.0557046202
asS'106810725'
p2798
(lp2799
F30.2366157437
asS'1105693836'
p2800
(lp2801
F25.032648477399999
asS'564068690'
p2802
(lp2803
F21.694392712399999
asS'253813547'
p2804
(lp2805
F39.449099926300001
asS'3303389147'
p2806
(lp2807
F17.885695188100001
asS'509769573'
p2808
(lp2809
F31.056419461600001
asS'117511000'
p2810
(lp2811
F33.922262945200004
asS'253791853'
p2812
(lp2813
F29.584123622300002
asS'3303501297'
p2814
(lp2815
F30.631563174
asS'227089517'
p2816
(lp2817
F21.994973228599999
asS'370407497'
p2818
(lp2819
F27.0910096663
asS'520605382'
p2820
(lp2821
F19.0971279187
asS'28059115'
p2822
(lp2823
F30.473359176300001
asS'341179470'
p2824
(lp2825
F22.323154684599999
asS'1904772828'
p2826
(lp2827
F39.795392601099998
asS'179398887'
p2828
(lp2829
F32.302958599500002
asS'3053054433'
p2830
(lp2831
F32.8070401656
asS'1230007218'
p2832
(lp2833
F30.9669365745
asS'23058035'
p2834
(lp2835
F33.248629128399998
asS'45326172'
p2836
(lp2837
F37.048489162899997
asS'196479615'
p2838
(lp2839
F24.732186947900001
asS'621983823'
p2840
(lp2841
F21.4489922486
asS'57388123'
p2842
(lp2843
F31.7159510107
asS'2907313046'
p2844
(lp2845
F25.573917674800001
asS'180786728'
p2846
(lp2847
F29.057258338800001
asS'614867166'
p2848
(lp2849
F24.846088780500001
asS'564890144'
p2850
(lp2851
F24.0949314376
asS'3331584491'
p2852
(lp2853
F25.763304790399999
asS'378815402'
p2854
(lp2855
F29.753808079999999
asS'972676584'
p2856
(lp2857
F21.778088348899999
asS'195699945'
p2858
(lp2859
F30.613895076399999
asS'3161572499'
p2860
(lp2861
F19.002344706500001
asS'5254851'
p2862
(lp2863
F29.1458813566
asS'448706240'
p2864
(lp2865
F21.130107963099999
asS'470528439'
p2866
(lp2867
F27.449342189199999
asS'488715970'
p2868
(lp2869
F24.564127431700001
asS'1523084330'
p2870
(lp2871
F51.450968996299999
asS'903122724'
p2872
(lp2873
F23.163947215299999
asS'233933230'
p2874
(lp2875
F31.742121341899999
asS'2995123902'
p2876
(lp2877
F25.685445270700001
asS'1111294736'
p2878
(lp2879
F35.058016113100003
asS'814121478'
p2880
(lp2881
F29.246214221999999
asS'77602579'
p2882
(lp2883
F28.104970364700002
asS'536803217'
p2884
(lp2885
F29.417589887999998
asS'2710813772'
p2886
(lp2887
F28.148716619199998
asS'1559437922'
p2888
(lp2889
F20.5406181199
asS'234660291'
p2890
(lp2891
F21.447267721300001
asS'371924226'
p2892
(lp2893
F29.858311295699998
asS'1357315292'
p2894
(lp2895
F29.545643056100001
asS'2290558314'
p2896
(lp2897
F51.433095284499998
asS'223813995'
p2898
(lp2899
F41.850347614999997
asS'2924837358'
p2900
(lp2901
F25.341491462600001
asS'2155965720'
p2902
(lp2903
F24.093823647099999
asS'2831172226'
p2904
(lp2905
F31.3517724923
asS'193573825'
p2906
(lp2907
F23.285121121900001
asS'333096539'
p2908
(lp2909
F33.480495288599997
asS'875198178'
p2910
(lp2911
F24.384430409
asS'2551981338'
p2912
(lp2913
F27.702716680000002
asS'3206819361'
p2914
(lp2915
F33.895317201499999
asS'3035739602'
p2916
(lp2917
F21.494556600500001
asS'2456514644'
p2918
(lp2919
F39.780036303000003
asS'9739202'
p2920
(lp2921
F37.293422445899999
asS'33856647'
p2922
(lp2923
F32.899311539700001
asS'53156275'
p2924
(lp2925
F33.369759784000003
asS'2452462418'
p2926
(lp2927
F33.750383772500001
asS'497964337'
p2928
(lp2929
F24.180282435300001
asS'2970133133'
p2930
(lp2931
F29.738089286099999
asS'333883073'
p2932
(lp2933
F38.114418121500002
asS'233150076'
p2934
(lp2935
F26.3732232594
asS'22589460'
p2936
(lp2937
F27.660705423300001
asS'14251801'
p2938
(lp2939
F28.600092423700001
asS'462683900'
p2940
(lp2941
F29.682725007599998
asS'2272492262'
p2942
(lp2943
F22.941877677699999
asS'1093161157'
p2944
(lp2945
F16.685720646299998
asS'430205622'
p2946
(lp2947
F23.727745475500001
asS'385836840'
p2948
(lp2949
F23.538134487200001
asS'3118964419'
p2950
(lp2951
F29.252869691899999
asS'446515593'
p2952
(lp2953
F25.446807497999998
asS'756049831'
p2954
(lp2955
F27.920502853399999
asS'3033186133'
p2956
(lp2957
F24.686420309900001
asS'288451785'
p2958
(lp2959
F31.218153543900002
asS'336328667'
p2960
(lp2961
F40.817872364300001
asS'596749764'
p2962
(lp2963
F29.257579104600001
asS'256295544'
p2964
(lp2965
F33.623062638199997
asS'1624769948'
p2966
(lp2967
F28.242454148899999
asS'15738612'
p2968
(lp2969
F26.366347336400001
asS'13738192'
p2970
(lp2971
F31.885118444500002
asS'55650895'
p2972
(lp2973
F35.532764632099997
asS'882315709'
p2974
(lp2975
F35.156914649599997
asS'3252304130'
p2976
(lp2977
F18.361702387400001
asS'28212338'
p2978
(lp2979
F19.075125701499999
asS'154497395'
p2980
(lp2981
F26.405789293400002
asS'3267461462'
p2982
(lp2983
F27.5374216451
asS'3039721373'
p2984
(lp2985
F22.043837521299999
asS'2110771'
p2986
(lp2987
F28.1622075322
asS'25527925'
p2988
(lp2989
F28.405709008500001
asS'76514412'
p2990
(lp2991
F21.513071673300001
asS'3041759534'
p2992
(lp2993
F30.490066650100001
asS'2882815516'
p2994
(lp2995
F20.423771045799999
asS'93107131'
p2996
(lp2997
F27.704895725299998
asS'51534880'
p2998
(lp2999
F27.278883299499999
asS'139682816'
p3000
(lp3001
F26.363715738500002
asS'50291495'
p3002
(lp3003
F24.386273956899998
asS'565990533'
p3004
(lp3005
F15.3488042182
asS'214042242'
p3006
(lp3007
F30.7945565596
asS'271582357'
p3008
(lp3009
F42.168910135499999
asS'3346946283'
p3010
(lp3011
F22.255918481999998
asS'18014373'
p3012
(lp3013
F26.016962032399999
asS'42520161'
p3014
(lp3015
F52.177853171599999
asS'833692508'
p3016
(lp3017
F30.153324354799999
asS'2991043915'
p3018
(lp3019
F33.439371880700001
asS'2515748377'
p3020
(lp3021
F28.160710804899999
asS'587754021'
p3022
(lp3023
F26.053939636500001
asS'969863028'
p3024
(lp3025
F31.598120932699999
asS'958800630'
p3026
(lp3027
F29.9761183309
asS'449430615'
p3028
(lp3029
F26.7687817698
asS'3330290146'
p3030
(lp3031
F26.7318742151
asS'116826365'
p3032
(lp3033
F27.754755495600001
asS'544927839'
p3034
(lp3035
F25.547218538300001
asS'370253741'
p3036
(lp3037
F31.421832374000001
asS'2196884166'
p3038
(lp3039
F35.8183834827
asS'42106370'
p3040
(lp3041
F24.974520008500001
asS'85758791'
p3042
(lp3043
F35.766330024699997
asS'461803892'
p3044
(lp3045
F19.657448652599999
asS'29343070'
p3046
(lp3047
F34.440257685600002
asS'1605668706'
p3048
(lp3049
F28.6292820259
asS'2762590129'
p3050
(lp3051
F33.7299843061
asS'386047805'
p3052
(lp3053
F34.931693213400003
asS'162406336'
p3054
(lp3055
F24.0663928094
asS'990342288'
p3056
(lp3057
F26.874089570300001
asS'1653842720'
p3058
(lp3059
F27.557042235200001
asS'37792953'
p3060
(lp3061
F28.245819721299998
asS'2604628464'
p3062
(lp3063
F31.720399843599999
asS'1938077630'
p3064
(lp3065
F36.237386669000003
asS'16027532'
p3066
(lp3067
F37.054279366199999
asS'1895992122'
p3068
(lp3069
F27.799740783299999
asS'3043915019'
p3070
(lp3071
F25.365231847800001
asS'2728030319'
p3072
(lp3073
F28.459364560299999
asS'276448675'
p3074
(lp3075
F25.436220281800001
asS'63433488'
p3076
(lp3077
F23.498900365400001
asS'3164925309'
p3078
(lp3079
F34.641799213399999
asS'343529731'
p3080
(lp3081
F23.990004196299999
asS'2752208297'
p3082
(lp3083
F25.127474529699999
asS'572956335'
p3084
(lp3085
F20.110154867199999
asS'781353956'
p3086
(lp3087
F23.447833044799999
asS'2897874217'
p3088
(lp3089
F23.8136580424
asS'226521605'
p3090
(lp3091
F36.048853763799997
asS'3131055880'
p3092
(lp3093
F22.947477370400001
asS'2236166862'
p3094
(lp3095
F23.731046386999999
asS'397647118'
p3096
(lp3097
F41.089933159899999
asS'1979318335'
p3098
(lp3099
F34.038925835000001
asS'197518793'
p3100
(lp3101
F31.850451544199998
asS'248408004'
p3102
(lp3103
F21.162829604700001
asS'45849604'
p3104
(lp3105
F28.845585388500002
asS'23636341'
p3106
(lp3107
F24.052168441199999
asS'19786336'
p3108
(lp3109
F32.951007876600002
asS'405418036'
p3110
(lp3111
F26.096595899099999
asS'295953728'
p3112
(lp3113
F21.631083588199999
asS'102552186'
p3114
(lp3115
F26.323476022000001
asS'1370051250'
p3116
(lp3117
F29.836724510300002
asS'2417189972'
p3118
(lp3119
F28.325313477400002
asS'100789993'
p3120
(lp3121
F37.385926235299998
asS'16042210'
p3122
(lp3123
F27.7545252629
asS'976570982'
p3124
(lp3125
F32.506804529
asS'2966783441'
p3126
(lp3127
F37.797546023400002
asS'185360779'
p3128
(lp3129
F27.300668087599998
asS'2432345448'
p3130
(lp3131
F29.222158260800001
asS'442194176'
p3132
(lp3133
F26.696683590300001
asS'2427549086'
p3134
(lp3135
F31.987214891899999
asS'904810734'
p3136
(lp3137
F22.436344030800001
asS'3185235143'
p3138
(lp3139
F22.845450053699999
asS'391599105'
p3140
(lp3141
F22.102544378299999
asS'281310593'
p3142
(lp3143
F32.504229394699998
asS'2743029652'
p3144
(lp3145
F22.147650678400002
asS'2908458650'
p3146
(lp3147
F17.6640858385
asS'381093957'
p3148
(lp3149
F32.830778545199998
asS'2894492515'
p3150
(lp3151
F32.1077619175
asS'3015895638'
p3152
(lp3153
F17.647386796999999
asS'770521927'
p3154
(lp3155
F45.948295891800001
asS'311622816'
p3156
(lp3157
F36.742830051299997
asS'460516990'
p3158
(lp3159
F31.2105877262
asS'35814494'
p3160
(lp3161
F25.123196172699998
asS'2229265825'
p3162
(lp3163
F27.933008290499998
asS'21395960'
p3164
(lp3165
F32.601760403
asS'198203340'
p3166
(lp3167
F14.569522209200001
asS'239617607'
p3168
(lp3169
F33.7470355373
asS'1107454231'
p3170
(lp3171
F40.790299881000003
asS'59889375'
p3172
(lp3173
F31.328845779800002
asS'3242880618'
p3174
(lp3175
F26.1232586281
asS'792069997'
p3176
(lp3177
F24.500223258799998
asS'3126680683'
p3178
(lp3179
F34.448421158400002
asS'2894032402'
p3180
(lp3181
F28.487531234999999
asS'43489755'
p3182
(lp3183
F30.323460620399999
asS'3342026337'
p3184
(lp3185
F30.299566260399999
asS'2190483199'
p3186
(lp3187
F22.1020972094
asS'9384712'
p3188
(lp3189
F32.140684253899998
asS'416040278'
p3190
(lp3191
F29.351124072800001
asS'3102422154'
p3192
(lp3193
F32.996451194300001
asS'2177337757'
p3194
(lp3195
F31.651081538100001
asS'64722891'
p3196
(lp3197
F22.141868135100001
asS'50194631'
p3198
(lp3199
F22.223396273199999
asS'50633083'
p3200
(lp3201
F23.684050882899999
asS'480632431'
p3202
(lp3203
F44.724823205900002
asS'576259739'
p3204
(lp3205
F21.842060650699999
asS'2487908323'
p3206
(lp3207
F26.763573745799999
asS'715044396'
p3208
(lp3209
F27.634394782099999
asS'3053753441'
p3210
(lp3211
F31.920091203199998
asS'93194555'
p3212
(lp3213
F28.5454204883
asS'1000849548'
p3214
(lp3215
F25.398162771700001
asS'25697311'
p3216
(lp3217
F26.524075632999999
asS'3097044714'
p3218
(lp3219
F18.701422525400002
asS'266686959'
p3220
(lp3221
F28.478718260899999
asS'481801051'
p3222
(lp3223
F38.682542494499998
asS'302353072'
p3224
(lp3225
F38.624020390600002
asS'1949759941'
p3226
(lp3227
F25.743112865000001
asS'20275809'
p3228
(lp3229
F29.179411117600001
asS'3000911754'
p3230
(lp3231
F30.1383917006
asS'42245932'
p3232
(lp3233
F28.335805909000001
asS'101945848'
p3234
(lp3235
F28.317607264199999
asS'2359848745'
p3236
(lp3237
F34.379213523600001
asS'1099255296'
p3238
(lp3239
F32.2759628023
asS'1402815517'
p3240
(lp3241
F21.0072076302
asS'1871547854'
p3242
(lp3243
F28.369399076000001
asS'794810444'
p3244
(lp3245
F35.879954404999999
asS'117010608'
p3246
(lp3247
F27.899095322000001
asS'51175773'
p3248
(lp3249
F31.2673841722
asS'2820860233'
p3250
(lp3251
F29.343443329700001
asS'2174118859'
p3252
(lp3253
F31.446740346399999
asS'3171644885'
p3254
(lp3255
F26.3569994711
asS'18037344'
p3256
(lp3257
F28.368668785299999
asS'3060277294'
p3258
(lp3259
F38.326834867899997
asS'3170681876'
p3260
(lp3261
F23.106402141099998
asS'933647382'
p3262
(lp3263
F29.1891905154
asS'517084598'
p3264
(lp3265
F30.746200117600001
asS'3163317251'
p3266
(lp3267
F28.6224366012
asS'247502019'
p3268
(lp3269
F20.896682827599999
asS'862312878'
p3270
(lp3271
F35.2822640953
asS'2546651261'
p3272
(lp3273
F20.616885126100001
asS'3220784724'
p3274
(lp3275
F29.974622329199999
asS'426804233'
p3276
(lp3277
F28.906572509299998
asS'28976344'
p3278
(lp3279
F27.1838694924
asS'2485528477'
p3280
(lp3281
F30.808798362299999
asS'3240304124'
p3282
(lp3283
F36.331692252099998
asS'2683134085'
p3284
(lp3285
F36.8324729972
asS'24225635'
p3286
(lp3287
F30.308144159899999
asS'2259688530'
p3288
(lp3289
F27.655784809099998
asS'48663757'
p3290
(lp3291
F41.671547844899997
asS'3368792476'
p3292
(lp3293
F31.280345068900001
asS'2609463888'
p3294
(lp3295
F30.090273560899998
asS'2899816762'
p3296
(lp3297
F20.523160071900001
asS'712383758'
p3298
(lp3299
F20.1790775447
asS'2744370787'
p3300
(lp3301
F28.9310487453
asS'2903479080'
p3302
(lp3303
F28.0346995658
asS'548246959'
p3304
(lp3305
F23.020918450900002
asS'320146757'
p3306
(lp3307
F23.478969793600001
asS'3000602296'
p3308
(lp3309
F42.591855022499999
asS'126523005'
p3310
(lp3311
F35.265973256599999
asS'3121592238'
p3312
(lp3313
F22.611271549600001
asS'3292215519'
p3314
(lp3315
F30.7082318872
asS'349222101'
p3316
(lp3317
F43.512633540800003
asS'74923909'
p3318
(lp3319
F31.894812459499999
asS'132722588'
p3320
(lp3321
F24.501023694099999
asS'979402231'
p3322
(lp3323
F27.126470262800002
asS'37979031'
p3324
(lp3325
F31.231313027500001
asS'1017189240'
p3326
(lp3327
F27.245852168599999
asS'542156090'
p3328
(lp3329
F19.185970390200001
asS'360001485'
p3330
(lp3331
F23.587559322600001
asS'2970593542'
p3332
(lp3333
F27.572775746200001
asS'2306006749'
p3334
(lp3335
F29.899768073299999
asS'92468768'
p3336
(lp3337
F33.992825377999999
asS'515136400'
p3338
(lp3339
F31.017508473300001
asS'220521204'
p3340
(lp3341
F26.326885109100001
asS'403907893'
p3342
(lp3343
F28.648262708499999
asS'318035237'
p3344
(lp3345
F33.257637519100001
asS'100306237'
p3346
(lp3347
F29.483834441700001
asS'2180563412'
p3348
(lp3349
F31.044373779000001
asS'50885144'
p3350
(lp3351
F31.713212308300001
asS'357901696'
p3352
(lp3353
F30.001553710700001
asS'555892450'
p3354
(lp3355
F33.243067535800002
asS'993585120'
p3356
(lp3357
F32.239539372499998
asS'465268864'
p3358
(lp3359
F52.377375825000001
asS'985567560'
p3360
(lp3361
F21.060480791
asS'160662502'
p3362
(lp3363
F24.927758777400001
asS'387472346'
p3364
(lp3365
F28.091115713200001
asS'20295082'
p3366
(lp3367
F17.858531023000001
asS'1117114844'
p3368
(lp3369
F42.334387835599998
asS'1219714032'
p3370
(lp3371
F26.7644431718
asS'2730053550'
p3372
(lp3373
F24.532520842
asS'557078282'
p3374
(lp3375
F34.415558364500001
asS'1706347562'
p3376
(lp3377
F27.363658045699999
asS'35046000'
p3378
(lp3379
F20.8554026019
asS'493759293'
p3380
(lp3381
F19.882372561899999
asS'510813253'
p3382
(lp3383
F37.2781362108
asS'1955918744'
p3384
(lp3385
F19.051440148499999
asS'198004487'
p3386
(lp3387
F31.956047794
asS'2429648227'
p3388
(lp3389
F23.087022071300002
asS'18028698'
p3390
(lp3391
F32.250201344300002
asS'365759123'
p3392
(lp3393
F24.811843103600001
asS'22303562'
p3394
(lp3395
F32.600161130499998
asS'2375945442'
p3396
(lp3397
F17.955670792799999
asS'75403792'
p3398
(lp3399
F38.920054343399997
asS'233268937'
p3400
(lp3401
F23.414860798399999
asS'140265010'
p3402
(lp3403
F26.246262320700001
asS'258551101'
p3404
(lp3405
F28.029412513499999
asS'1120979353'
p3406
(lp3407
F30.4044434708
asS'28737338'
p3408
(lp3409
F33.350600942900002
asS'82881276'
p3410
(lp3411
F27.115800602099998
asS'1977419539'
p3412
(lp3413
F26.975991306000001
asS'2924173747'
p3414
(lp3415
F27.2849921141
asS'2901941750'
p3416
(lp3417
F15.880823062199999
asS'345477875'
p3418
(lp3419
F23.104809103200001
asS'2872454995'
p3420
(lp3421
F23.1226306334
asS'125036205'
p3422
(lp3423
F36.224852135299997
asS'15020730'
p3424
(lp3425
F35.516147849100001
asS'2889484097'
p3426
(lp3427
F27.390541506400002
asS'37794539'
p3428
(lp3429
F28.9685960226
asS'548626907'
p3430
(lp3431
F27.655878550099999
asS'954148879'
p3432
(lp3433
F21.154922821
asS'407839506'
p3434
(lp3435
F15.068908628000001
asS'3321488885'
p3436
(lp3437
F31.2841665455
asS'47520535'
p3438
(lp3439
F27.659731962799999
asS'288919245'
p3440
(lp3441
F23.436076678199999
asS'47096351'
p3442
(lp3443
F30.156648816400001
asS'2361911206'
p3444
(lp3445
F24.587704053
asS'292370994'
p3446
(lp3447
F20.709322882799999
asS'406705341'
p3448
(lp3449
F39.133269004399999
asS'950784150'
p3450
(lp3451
F31.961287973299999
asS'2855795572'
p3452
(lp3453
F36.072751692600001
asS'215446879'
p3454
(lp3455
F25.187548488499999
asS'64813290'
p3456
(lp3457
F29.914204675699999
asS'3318314009'
p3458
(lp3459
F23.891277004700001
asS'23846387'
p3460
(lp3461
F34.793213677799997
asS'3041943642'
p3462
(lp3463
F27.427014646
asS'361639486'
p3464
(lp3465
F30.8406278585
asS'607886013'
p3466
(lp3467
F19.6703501981
asS'1535720599'
p3468
(lp3469
F37.711881578499998
asS'2753117904'
p3470
(lp3471
F13.7233100469
asS'593118823'
p3472
(lp3473
F13
asS'2782914858'
p3474
(lp3475
F21.261037115499999
asS'2767997646'
p3476
(lp3477
F28.1263205196
asS'30724156'
p3478
(lp3479
F24.000539437499999
asS'713310595'
p3480
(lp3481
F19.184033981700001
asS'3256540614'
p3482
(lp3483
F31.125861911099999
asS'2534342832'
p3484
(lp3485
F25.644391656300002
asS'369249722'
p3486
(lp3487
F34.384916023400002
asS'404919473'
p3488
(lp3489
F30.604265611700001
asS'2663115926'
p3490
(lp3491
F37.809441934900001
asS'2194928326'
p3492
(lp3493
F21.821809363700002
asS'2948775659'
p3494
(lp3495
F22.991743040999999
asS'2802124516'
p3496
(lp3497
F26.268018016999999
asS'466773232'
p3498
(lp3499
F15.975644149900001
asS'20306034'
p3500
(lp3501
F36.596137491500002
asS'350747623'
p3502
(lp3503
F21.1018905683
asS'223185716'
p3504
(lp3505
F28.456793767899999
asS'3038719164'
p3506
(lp3507
F25.910163689000001
asS'1618797350'
p3508
(lp3509
F29.398441556200002
asS'54454385'
p3510
(lp3511
F35.719106166400003
asS'1715841900'
p3512
(lp3513
F36.437822920499997
asS'769171752'
p3514
(lp3515
F25.173634412799998
asS'132286315'
p3516
(lp3517
F31.760779232400001
asS'14810811'
p3518
(lp3519
F63.737351159299998
asS'1900908690'
p3520
(lp3521
F33.095367428899998
asS'1551803456'
p3522
(lp3523
F32.7170031112
asS'3112095424'
p3524
(lp3525
F42.015115716499999
asS'350047207'
p3526
(lp3527
F23.774146764099999
asS'153726491'
p3528
(lp3529
F26.560781131999999
asS'3362824845'
p3530
(lp3531
F33.0713240754
asS'84408506'
p3532
(lp3533
F23.1993808673
asS'25622882'
p3534
(lp3535
F26.745331676100001
asS'96825691'
p3536
(lp3537
F24.741727653400002
asS'2835888253'
p3538
(lp3539
F27.887495331
asS'734560633'
p3540
(lp3541
F35.150229777699998
asS'747723973'
p3542
(lp3543
F22.867929200999999
asS'310483874'
p3544
(lp3545
F21.9706885268
asS'47348085'
p3546
(lp3547
F21.366638002999998
asS'281294184'
p3548
(lp3549
F21.104675355299999
asS'251905304'
p3550
(lp3551
F29.9593159052
asS'298821330'
p3552
(lp3553
F25.5771747961
asS'2789451130'
p3554
(lp3555
F22.5712366365
asS'2772418567'
p3556
(lp3557
F30.783094452299999
asS'3257222090'
p3558
(lp3559
F16.456625382599999
asS'2810237143'
p3560
(lp3561
F40.323300219799997
asS'899038374'
p3562
(lp3563
F28.245766517
asS'3355850123'
p3564
(lp3565
F28.611530237
asS'1282258585'
p3566
(lp3567
F20.021239791399999
asS'2477424361'
p3568
(lp3569
F20.360291347099999
asS'3299793525'
p3570
(lp3571
F28.4121724741
asS'1397684953'
p3572
(lp3573
F26.992902175899999
asS'244336768'
p3574
(lp3575
F21.167394353500001
asS'284875256'
p3576
(lp3577
F25.6169828747
asS'246362853'
p3578
(lp3579
F20.076429357599999
asS'516573984'
p3580
(lp3581
F22.565066747300001
asS'2904569183'
p3582
(lp3583
F27.166094768099999
asS'3274932152'
p3584
(lp3585
F26.212057122400001
asS'14303077'
p3586
(lp3587
F24.9169884248
asS'1374664320'
p3588
(lp3589
F27.549656265100001
asS'65533495'
p3590
(lp3591
F22.560491155600001
asS'2860589726'
p3592
(lp3593
F31.233825907
asS'495072523'
p3594
(lp3595
F43.798638747600002
asS'108683893'
p3596
(lp3597
F26.833830965800001
asS'74968200'
p3598
(lp3599
F25.894445044899999
asS'2953952180'
p3600
(lp3601
F33.639379269499997
asS'3252886586'
p3602
(lp3603
F15.636888257500001
asS'36207113'
p3604
(lp3605
F34.0969736578
asS'287084075'
p3606
(lp3607
F25.1719892847
asS'1833167173'
p3608
(lp3609
F26.763988905200002
asS'3201685978'
p3610
(lp3611
F23.5902506547
asS'2312309148'
p3612
(lp3613
F20.936823493199999
asS'44174813'
p3614
(lp3615
F36.225032307100001
asS'69899423'
p3616
(lp3617
F33.585271706100002
asS'2383867424'
p3618
(lp3619
F41.796350669100001
asS'1476111248'
p3620
(lp3621
F17.713985002800001
asS'36450346'
p3622
(lp3623
F28.876765322000001
asS'26146954'
p3624
(lp3625
F28.5043065829
asS'3119138842'
p3626
(lp3627
F30.1151242225
asS'51794810'
p3628
(lp3629
F28.171329717999999
asS'414161049'
p3630
(lp3631
F29.194356454400001
asS'2195493073'
p3632
(lp3633
F30.9693317837
asS'40756848'
p3634
(lp3635
F27.1577764436
asS'937254745'
p3636
(lp3637
F27.421310823599999
asS'1302428840'
p3638
(lp3639
F26.4671957678
asS'711499801'
p3640
(lp3641
F29.970995580899999
asS'32523860'
p3642
(lp3643
F32.858458872999996
asS'525963811'
p3644
(lp3645
F31.665325457600002
asS'506834929'
p3646
(lp3647
F30.469646970700001
asS'330759494'
p3648
(lp3649
F43.443120984799997
asS'582445927'
p3650
(lp3651
F18.845030721699999
asS'275845347'
p3652
(lp3653
F41.821590224799998
asS'192063194'
p3654
(lp3655
F28.0459265567
asS'314243234'
p3656
(lp3657
F28.1436002218
asS'20913524'
p3658
(lp3659
F34.793266546700004
asS'1855651098'
p3660
(lp3661
F24.904312209499999
asS'2154273384'
p3662
(lp3663
F29.755655590899998
asS'1541891113'
p3664
(lp3665
F19.727556061400001
asS'2549540509'
p3666
(lp3667
F25.9537943461
asS'118991546'
p3668
(lp3669
F40.675425234999999
asS'332936866'
p3670
(lp3671
F30.753245319800001
asS'89561713'
p3672
(lp3673
F34.677046106100001
asS'919886574'
p3674
(lp3675
F36.803596206000002
asS'2435948240'
p3676
(lp3677
F32.073516897499999
asS'609485539'
p3678
(lp3679
F33.162134954899997
asS'2780472178'
p3680
(lp3681
F25.0515329288
asS'2991308787'
p3682
(lp3683
F29.2693818511
asS'105498404'
p3684
(lp3685
F21.259950836800002
asS'537496763'
p3686
(lp3687
F32.248603821700002
asS'61567598'
p3688
(lp3689
F27.9233317433
asS'626067666'
p3690
(lp3691
F28.164323966400001
asS'75946288'
p3692
(lp3693
F37.0045330986
asS'3256080464'
p3694
(lp3695
F30.620304074
asS'19142551'
p3696
(lp3697
F31.768257979800001
asS'570472249'
p3698
(lp3699
F17.342686760599999
asS'977434538'
p3700
(lp3701
F22.357487780700001
asS'2950081504'
p3702
(lp3703
F31.093627758499998
asS'271126094'
p3704
(lp3705
F21.4364654235
asS'291839469'
p3706
(lp3707
F28.235592934700001
asS'840424010'
p3708
(lp3709
F15.9772410683
asS'28644910'
p3710
(lp3711
F28.098547358000001
asS'1149353412'
p3712
(lp3713
F27.170310371500001
asS'2176428032'
p3714
(lp3715
F27.816083127399999
asS'2391870344'
p3716
(lp3717
F37.443816452500002
asS'1889854964'
p3718
(lp3719
F35.697866528399999
asS'2834166882'
p3720
(lp3721
F28.4593176833
asS'267085354'
p3722
(lp3723
F27.169813659999999
asS'547166559'
p3724
(lp3725
F29.575363476900002
asS'275714700'
p3726
(lp3727
F29.360816145899999
asS'336721797'
p3728
(lp3729
F25.4567283887
asS'3164632718'
p3730
(lp3731
F26.876553920900001
asS'2614101470'
p3732
(lp3733
F34.222426570800003
asS'2718241163'
p3734
(lp3735
F31.358490091899998
asS'872664656'
p3736
(lp3737
F16.573069172299999
asS'474202929'
p3738
(lp3739
F32.2245560705
asS'41479697'
p3740
(lp3741
F23.637426084099999
asS'1662566360'
p3742
(lp3743
F21.307413604200001
asS'112604113'
p3744
(lp3745
F28.858790106000001
asS'95930466'
p3746
(lp3747
F34.431818636599999
asS'320478877'
p3748
(lp3749
F29.305308563699999
asS'1317009750'
p3750
(lp3751
F25.922472321699999
asS'3293630295'
p3752
(lp3753
F30.939110338799999
asS'129933461'
p3754
(lp3755
F26.162582220099999
asS'397812389'
p3756
(lp3757
F23.974231086900001
asS'201553765'
p3758
(lp3759
F36.181205831100002
asS'357175021'
p3760
(lp3761
F28.590572049799999
asS'305851676'
p3762
(lp3763
F29.788766947399999
asS'212853504'
p3764
(lp3765
F27.970642077899999
asS'1963571004'
p3766
(lp3767
F32.3033796458
asS'1184640014'
p3768
(lp3769
F31.841084575099998
asS'25817664'
p3770
(lp3771
F28.776850173100001
asS'46808996'
p3772
(lp3773
F26.237566719299998
asS'1458272461'
p3774
(lp3775
F32.467761035099997
asS'305501561'
p3776
(lp3777
F25.9110389067
asS'2319025602'
p3778
(lp3779
F25.569238303599999
asS'2920589622'
p3780
(lp3781
F30.153353765399999
asS'2798979048'
p3782
(lp3783
F25.769934087999999
asS'343095829'
p3784
(lp3785
F38.160736943300002
asS'3078208799'
p3786
(lp3787
F25.3465469201
asS'78170242'
p3788
(lp3789
F31.762809495900001
asS'64267838'
p3790
(lp3791
F23.290566466600001
asS'572388577'
p3792
(lp3793
F16.8413955923
asS'2911679200'
p3794
(lp3795
F25.109973549500001
asS'258916333'
p3796
(lp3797
F29.332998954000001
asS'3189230557'
p3798
(lp3799
F40.467665787400001
asS'21515818'
p3800
(lp3801
F28.060208544399998
asS'313186446'
p3802
(lp3803
F25.5719142417
asS'3151857912'
p3804
(lp3805
F27.671359739
asS'103719930'
p3806
(lp3807
F33.787279210599998
asS'1642402514'
p3808
(lp3809
F34.755840041100001
asS'159302754'
p3810
(lp3811
F23.7242047965
asS'241689056'
p3812
(lp3813
F34.778724945900002
asS'3145845406'
p3814
(lp3815
F33.976659355999999
asS'38054768'
p3816
(lp3817
F27.3168517766
asS'2881778014'
p3818
(lp3819
F23.164109998000001
asS'43345725'
p3820
(lp3821
F27.8926086291
asS'945530322'
p3822
(lp3823
F22.653982122799999
asS'215491063'
p3824
(lp3825
F35.198118877100001
asS'2788150925'
p3826
(lp3827
F33.118806163499997
asS'582294741'
p3828
(lp3829
F23.872143581900001
asS'3329825789'
p3830
(lp3831
F31.175265392
asS'2483966217'
p3832
(lp3833
F19.900471403699999
asS'2568960285'
p3834
(lp3835
F19.293760412800001
asS'534489724'
p3836
(lp3837
F26.161159552800001
asS'2303267462'
p3838
(lp3839
F49.290934100900003
asS'2859217526'
p3840
(lp3841
F29.180751561699999
asS'77144908'
p3842
(lp3843
F33.557126704399998
asS'282269124'
p3844
(lp3845
F29.028384426199999
asS'60935743'
p3846
(lp3847
F33.060950700500001
asS'2785390419'
p3848
(lp3849
F24.369942275100001
asS'1244481517'
p3850
(lp3851
F31.390672025600001
asS'457995284'
p3852
(lp3853
F42.059591971400003
asS'2244943075'
p3854
(lp3855
F28.7922471505
asS'1615817888'
p3856
(lp3857
F28.062870934500001
asS'1215098928'
p3858
(lp3859
F26.811237161200001
asS'2970485691'
p3860
(lp3861
F21.9851672074
asS'581500758'
p3862
(lp3863
F28.2488911672
asS'541329511'
p3864
(lp3865
F17.368648731899999
asS'531598198'
p3866
(lp3867
F33.032419165500002
asS'46491617'
p3868
(lp3869
F31.9160327317
asS'36420135'
p3870
(lp3871
F27.747612682500002
asS'61321567'
p3872
(lp3873
F24.948797817399999
asS'2387540400'
p3874
(lp3875
F27.8349207523
asS'821414353'
p3876
(lp3877
F24.7888592905
asS'70235285'
p3878
(lp3879
F28.941078520000001
asS'1309587146'
p3880
(lp3881
F15.4712953006
asS'196292489'
p3882
(lp3883
F31.050425944200001
asS'555306617'
p3884
(lp3885
F27.9960467587
asS'1182858038'
p3886
(lp3887
F40.216862706500002
asS'553308886'
p3888
(lp3889
F36.099184273900001
asS'2848382739'
p3890
(lp3891
F22.841005702099999
asS'2655491030'
p3892
(lp3893
F23.214640246399998
asS'1241691530'
p3894
(lp3895
F28.987369672700002
asS'3254910506'
p3896
(lp3897
F24.581707116699999
asS'241769973'
p3898
(lp3899
F33.5649967664
asS'373998936'
p3900
(lp3901
F20.518851328699999
asS'23271347'
p3902
(lp3903
F30.627826573099998
asS'2587529058'
p3904
(lp3905
F27.9527440333
asS'836749134'
p3906
(lp3907
F28.710297003499999
asS'551112681'
p3908
(lp3909
F27.046563696
asS'3254663659'
p3910
(lp3911
F33.640939083399999
asS'626003565'
p3912
(lp3913
F23.127974225999999
asS'260730899'
p3914
(lp3915
F16.530796819799999
asS'3244932869'
p3916
(lp3917
F14.488111347
asS'448111957'
p3918
(lp3919
F21.6191784566
asS'324331427'
p3920
(lp3921
F20.905176733899999
asS'2322775592'
p3922
(lp3923
F23.849938058399999
asS'3111237760'
p3924
(lp3925
F22.688709000100001
asS'1450141088'
p3926
(lp3927
F20.793928791399999
asS'635404938'
p3928
(lp3929
F32.590561206099999
asS'3250022354'
p3930
(lp3931
F28.948665904599999
asS'18227863'
p3932
(lp3933
F22.468432594199999
asS'2869086157'
p3934
(lp3935
F21.817157567399999
asS'2560238717'
p3936
(lp3937
F27.2421861682
asS'890921756'
p3938
(lp3939
F19.306479285999998
asS'379082219'
p3940
(lp3941
F21.1851635421
asS'110023569'
p3942
(lp3943
F32.536404341800001
asS'17180291'
p3944
(lp3945
F37.649718910200001
asS'356858339'
p3946
(lp3947
F23.300688629700002
asS'15577097'
p3948
(lp3949
F28.219168386300002
asS'3223618334'
p3950
(lp3951
F29.657135070199999
asS'16223976'
p3952
(lp3953
F28.331457546999999
asS'35556048'
p3954
(lp3955
F20.580527843399999
asS'349219338'
p3956
(lp3957
F25.842126884599999
asS'3295585643'
p3958
(lp3959
F34.7588874347
asS'2158032035'
p3960
(lp3961
F29.1779377734
asS'1489300873'
p3962
(lp3963
F26.777805541199999
asS'22801995'
p3964
(lp3965
F33.566485648899999
asS'160371272'
p3966
(lp3967
F30.561513955100001
asS'236250981'
p3968
(lp3969
F28.231260237299999
asS'1016280511'
p3970
(lp3971
F20.2521857399
asS'2780633705'
p3972
(lp3973
F34.951498085499999
asS'64687084'
p3974
(lp3975
F28.273170325599999
asS'3153661079'
p3976
(lp3977
F26.1461575479
asS'2202060642'
p3978
(lp3979
F30.099285452099998
asS'3193043938'
p3980
(lp3981
F38.362042542499999
asS'392514148'
p3982
(lp3983
F34.309913139899997
asS'1974495078'
p3984
(lp3985
F33.3359239985
asS'334325106'
p3986
(lp3987
F31.3490546849
asS'400307692'
p3988
(lp3989
F41.833782225500002
asS'242863027'
p3990
(lp3991
F35.851922749400003
asS'3107567597'
p3992
(lp3993
F31.015199605900001
asS'254237744'
p3994
(lp3995
F31.7061529263
asS'76148385'
p3996
(lp3997
F24.4805615121
asS'762751633'
p3998
(lp3999
F18.308246311600001
asS'304023456'
p4000
(lp4001
F26.441202106999999
asS'1102712310'
p4002
(lp4003
F28.822332790600001
asS'41012342'
p4004
(lp4005
F27.972550619100002
asS'1913188200'
p4006
(lp4007
F17.6607092112
asS'42910675'
p4008
(lp4009
F35.672802500099998
asS'65992273'
p4010
(lp4011
F30.545414019900001
asS'41766494'
p4012
(lp4013
F33.400597399600002
asS'2409709272'
p4014
(lp4015
F16.5958808193
asS'3152225155'
p4016
(lp4017
F28.342348235799999
asS'356634518'
p4018
(lp4019
F23.932651693
asS'34830116'
p4020
(lp4021
F21.5144440696
asS'14577109'
p4022
(lp4023
F22.669431164199999
asS'2190383267'
p4024
(lp4025
F28.362233653200001
asS'2518574096'
p4026
(lp4027
F33.313654898599999
asS'57099757'
p4028
(lp4029
F28.392513720099998
asS'3153280458'
p4030
(lp4031
F22.6556201143
asS'215697991'
p4032
(lp4033
F17.524838481100002
asS'938059670'
p4034
(lp4035
F39.770758523399998
asS'24257249'
p4036
(lp4037
F21.505519889199999
asS'13148882'
p4038
(lp4039
F30.5772568547
asS'37820375'
p4040
(lp4041
F26.303655194000001
asS'55143'
p4042
(lp4043
F30.346062224099999
asS'20662651'
p4044
(lp4045
F45.335602137199999
asS'986928554'
p4046
(lp4047
F32.1597917219
asS'594337767'
p4048
(lp4049
F31.243819134599999
asS'109360465'
p4050
(lp4051
F24.644757595200002
asS'1547761836'
p4052
(lp4053
F28.595023167699999
asS'3241958463'
p4054
(lp4055
F29.402642310899999
asS'459532862'
p4056
(lp4057
F19.602091836
asS'81438841'
p4058
(lp4059
F39.821231203099998
asS'35206917'
p4060
(lp4061
F26.789674166299999
asS'1173395690'
p4062
(lp4063
F29.969189136899999
asS'246842298'
p4064
(lp4065
F31.882401575300001
asS'264271174'
p4066
(lp4067
F29.2401637237
asS'2436453084'
p4068
(lp4069
F29.190654441700001
asS'415480403'
p4070
(lp4071
F27.509636934100001
asS'2649658651'
p4072
(lp4073
F27.035556258
asS'98542228'
p4074
(lp4075
F26.067602218699999
asS'343042963'
p4076
(lp4077
F37.415293077199998
asS'24761032'
p4078
(lp4079
F29.821551613699999
asS'2303978924'
p4080
(lp4081
F27.447420235900001
asS'2967391505'
p4082
(lp4083
F24.663691163100001
asS'2579979278'
p4084
(lp4085
F36.943700627799998
asS'2957101507'
p4086
(lp4087
F27.521204172899999
asS'42966205'
p4088
(lp4089
F27.6490362716
asS'88302415'
p4090
(lp4091
F28.214873910000001
asS'2290793182'
p4092
(lp4093
F16.457449339099998
asS'293978620'
p4094
(lp4095
F29.894902885099999
asS'2790823334'
p4096
(lp4097
F23.162435127999998
asS'1021892072'
p4098
(lp4099
F21.985827523499999
asS'1088990966'
p4100
(lp4101
F38.3070402309
asS'1612597453'
p4102
(lp4103
F27.277209220700001
asS'2402757463'
p4104
(lp4105
F23.1849720568
asS'151005270'
p4106
(lp4107
F25.951516287299999
asS'52145437'
p4108
(lp4109
F26.837364998599998
asS'3196630410'
p4110
(lp4111
F24.2509326423
asS'27049695'
p4112
(lp4113
F26.714232088700001
asS'2970135322'
p4114
(lp4115
F32.589663580200003
asS'17037382'
p4116
(lp4117
F32.361002429899997
asS'3143085166'
p4118
(lp4119
F28.431810777500001
asS'136661815'
p4120
(lp4121
F22.0005588868
asS'552178363'
p4122
(lp4123
F29.664478301900001
asS'2604671377'
p4124
(lp4125
F37.650943304999998
asS'106790430'
p4126
(lp4127
F23.473671893599999
asS'422937089'
p4128
(lp4129
F34.130110272700001
asS'245103569'
p4130
(lp4131
F24.292714628700001
asS'1049020446'
p4132
(lp4133
F39.008249782
asS'1520243226'
p4134
(lp4135
F25.784718453
asS'594711386'
p4136
(lp4137
F34.974363741600001
asS'1646771184'
p4138
(lp4139
F24.6688209685
asS'370890022'
p4140
(lp4141
F20.504120862099999
asS'863113304'
p4142
(lp4143
F35.606732084100003
asS'21819264'
p4144
(lp4145
F25.5862941036
asS'2393620658'
p4146
(lp4147
F22.002185588100001
asS'2777585076'
p4148
(lp4149
F26.292980295700001
asS'2300803690'
p4150
(lp4151
F30.499768315899999
asS'2763500715'
p4152
(lp4153
F13.4292997272
asS'538036220'
p4154
(lp4155
F28.379280571100001
asS'2924501005'
p4156
(lp4157
F35.818540765800002
asS'122961443'
p4158
(lp4159
F22.846630248099999
asS'59058094'
p4160
(lp4161
F36.799055512599999
asS'49715720'
p4162
(lp4163
F29.9623566082
asS'526682327'
p4164
(lp4165
F25.521252608099999
asS'211956557'
p4166
(lp4167
F32.680558572000002
asS'2149562384'
p4168
(lp4169
F33.613425746099999
asS'2811814127'
p4170
(lp4171
F27.361514309699999
asS'36023807'
p4172
(lp4173
F23.290493915100001
asS'2846551735'
p4174
(lp4175
F25.2037077558
asS'101480081'
p4176
(lp4177
F28.163506588000001
asS'2321152968'
p4178
(lp4179
F34.281843502199997
asS'3166163040'
p4180
(lp4181
F28.130998931000001
asS'3093535243'
p4182
(lp4183
F21.660763812599999
asS'122215691'
p4184
(lp4185
F23.215060859800001
asS'42795468'
p4186
(lp4187
F32.367721827899999
asS'1269478950'
p4188
(lp4189
F31.5978820606
asS'3041874811'
p4190
(lp4191
F35.5340890652
asS'23195683'
p4192
(lp4193
F31.948440017100001
asS'1891202089'
p4194
(lp4195
F23.681247258100001
asS'1581664274'
p4196
(lp4197
F23.0544356423
asS'439389910'
p4198
(lp4199
F24.669344412699999
asS'438862536'
p4200
(lp4201
F28.914798987299999
asS'303554946'
p4202
(lp4203
F19.1160207802
asS'35093662'
p4204
(lp4205
F37.5724249242
asS'1608967496'
p4206
(lp4207
F22.5622133193
asS'584664650'
p4208
(lp4209
F20.5910083811
asS'379482411'
p4210
(lp4211
F28.804150783099999
asS'3146112395'
p4212
(lp4213
F19.8227298467
asS'2880833756'
p4214
(lp4215
F37.079009945499998
asS'22421834'
p4216
(lp4217
F33.542618172899999
asS'2482232082'
p4218
(lp4219
F22.1175830484
asS'2256745548'
p4220
(lp4221
F29.2034125952
asS'142947693'
p4222
(lp4223
F37.035211857699998
asS'19652417'
p4224
(lp4225
F20.032138417799999
asS'1328235834'
p4226
(lp4227
F30.015868988600001
asS'2479832246'
p4228
(lp4229
F34.966815113199999
asS'279164084'
p4230
(lp4231
F32.656547250700001
asS'211332420'
p4232
(lp4233
F34.359616585700003
asS'31896742'
p4234
(lp4235
F34.163004006100003
asS'63852037'
p4236
(lp4237
F34.239888870500003
asS'351209897'
p4238
(lp4239
F25.046328025299999
asS'2707434466'
p4240
(lp4241
F22.128251326899999
asS'2424692306'
p4242
(lp4243
F23.8048100207
asS'24688850'
p4244
(lp4245
F35.780280648599998
asS'409703516'
p4246
(lp4247
F34.289624600800003
asS'70249254'
p4248
(lp4249
F28.615279691000001
asS'1733508668'
p4250
(lp4251
F33.217108205300001
asS'122381405'
p4252
(lp4253
F33.453505775499998
asS'3237384536'
p4254
(lp4255
F30.079413959099998
asS'902589602'
p4256
(lp4257
F20.8611822455
asS'15614582'
p4258
(lp4259
F28.7020674555
asS'95697038'
p4260
(lp4261
F28.482104613699999
asS'575688473'
p4262
(lp4263
F23.590462271500002
asS'124479036'
p4264
(lp4265
F22.515353804
asS'3042242150'
p4266
(lp4267
F25.051330826000001
asS'554060122'
p4268
(lp4269
F34.584290878300003
asS'26452283'
p4270
(lp4271
F26.457555896500001
asS'60121152'
p4272
(lp4273
F41.976240187099997
asS'30695606'
p4274
(lp4275
F27.390263728699999
asS'2170765645'
p4276
(lp4277
F13.565172967000001
asS'3217694460'
p4278
(lp4279
F37.263429136399999
asS'26344790'
p4280
(lp4281
F40.4423401512
asS'33972296'
p4282
(lp4283
F22.813913771799999
asS'222695674'
p4284
(lp4285
F32.246512118399998
asS'1603766299'
p4286
(lp4287
F42.837560281599998
asS'2905670786'
p4288
(lp4289
F25.612960188900001
asS'3110487671'
p4290
(lp4291
F27.894204333400001
asS'177584156'
p4292
(lp4293
F34.038559311699998
asS'260608707'
p4294
(lp4295
F19.9151799399
asS'270437243'
p4296
(lp4297
F28.138913927099999
asS'1901332344'
p4298
(lp4299
F36.310903058599997
asS'564060928'
p4300
(lp4301
F37.9164708789
asS'124635640'
p4302
(lp4303
F25.522620305
asS'803058408'
p4304
(lp4305
F32.318975293299999
asS'1639304155'
p4306
(lp4307
F28.871748696699999
asS'371397087'
p4308
(lp4309
F24.581335102299999
asS'1870464230'
p4310
(lp4311
F33.556553695799998
asS'29371662'
p4312
(lp4313
F22.493595270899998
asS'2874359694'
p4314
(lp4315
F34.975947615700001
asS'516563463'
p4316
(lp4317
F29.136197019099999
asS'3153324049'
p4318
(lp4319
F19.658716700999999
asS'28817025'
p4320
(lp4321
F33.364824088600002
asS'241612113'
p4322
(lp4323
F38.910419426899999
asS'426091279'
p4324
(lp4325
F29.978523409899999
asS'1129745845'
p4326
(lp4327
F28.861282771100001
asS'34048927'
p4328
(lp4329
F22.458766042800001
asS'41595110'
p4330
(lp4331
F27.002358977699998
asS'1378240352'
p4332
(lp4333
F28.229810169299999
asS'3351115882'
p4334
(lp4335
F33.070530245400001
asS'2967115505'
p4336
(lp4337
F32.27020752
asS'2585670108'
p4338
(lp4339
F24.6691641283
asS'1478389008'
p4340
(lp4341
F28.198175334799998
asS'762583238'
p4342
(lp4343
F30.242658019899999
asS'290336510'
p4344
(lp4345
F24.798646139599999
asS'7435562'
p4346
(lp4347
F28.2859694158
asS'2280915056'
p4348
(lp4349
F29.9979944912
asS'342494191'
p4350
(lp4351
F43.507495739900001
asS'3035800695'
p4352
(lp4353
F31.446882820199999
asS'130632861'
p4354
(lp4355
F29.491879705799999
asS'3243741217'
p4356
(lp4357
F31.219388491099998
asS'3358485281'
p4358
(lp4359
F27.5044309944
asS'3266225124'
p4360
(lp4361
F26.596281769699999
asS'2166160305'
p4362
(lp4363
F23.014495788000001
asS'233789299'
p4364
(lp4365
F22.371913053
asS'158920425'
p4366
(lp4367
F28.701698255899998
asS'41983621'
p4368
(lp4369
F26.0137408997
asS'473920162'
p4370
(lp4371
F32.803499114600001
asS'583687484'
p4372
(lp4373
F25.275249414600001
asS'219317380'
p4374
(lp4375
F28.926726780900001
asS'35298128'
p4376
(lp4377
F30.895464492399999
asS'3248831545'
p4378
(lp4379
F36.610667513999999
asS'2937150214'
p4380
(lp4381
F29.0786335584
asS'3033470441'
p4382
(lp4383
F21.884609593099999
asS'588344266'
p4384
(lp4385
F18.7197380482
asS'129594352'
p4386
(lp4387
F24.864114948800001
asS'3199390706'
p4388
(lp4389
F26.445346403399999
asS'106348183'
p4390
(lp4391
F28.608237769700001
asS'1720527314'
p4392
(lp4393
F34.623138945599997
asS'948337297'
p4394
(lp4395
F26.8603726208
asS'3187165597'
p4396
(lp4397
F32.2465312649
asS'1856280157'
p4398
(lp4399
F15.965122903599999
asS'16665596'
p4400
(lp4401
F27.410723382600001
asS'337309414'
p4402
(lp4403
F36.817698365299997
asS'284325935'
p4404
(lp4405
F30.499741932199999
asS'32521113'
p4406
(lp4407
F36.502770809099999
asS'266182223'
p4408
(lp4409
F34.542156465799998
asS'217298076'
p4410
(lp4411
F36.175549744599998
asS'16248905'
p4412
(lp4413
F33.893958173800002
asS'126008063'
p4414
(lp4415
F27.1990093997
asS'2951248177'
p4416
(lp4417
F32.27020752
asS'53537850'
p4418
(lp4419
F28.199224075899998
asS'348255536'
p4420
(lp4421
F21.821752979799999
asS'18329193'
p4422
(lp4423
F26.7137682593
asS'189749686'
p4424
(lp4425
F26.4204881621
asS'1633773842'
p4426
(lp4427
F34.104187106799998
asS'1950980395'
p4428
(lp4429
F26.229905781300001
asS'1285710638'
p4430
(lp4431
F29.0431836293
asS'742925732'
p4432
(lp4433
F29.549193678400002
asS'533285473'
p4434
(lp4435
F28.771192409200001
asS'2335712275'
p4436
(lp4437
F31.4188811621
asS'396999739'
p4438
(lp4439
F17.8898548662
asS'16532762'
p4440
(lp4441
F33.769133181800001
asS'20466413'
p4442
(lp4443
F31.4050968353
asS'574387850'
p4444
(lp4445
F30.1329830731
asS'622258840'
p4446
(lp4447
F25.720407659700001
asS'35525944'
p4448
(lp4449
F23.449410882399999
asS'15705283'
p4450
(lp4451
F23.658263108300002
asS'26504239'
p4452
(lp4453
F26.867897588799998
asS'337891434'
p4454
(lp4455
F24.882411583
asS'898233312'
p4456
(lp4457
F20.510080847699999
asS'2527758476'
p4458
(lp4459
F30.953072904599999
asS'2919308995'
p4460
(lp4461
F20.840052637100001
asS'2303077585'
p4462
(lp4463
F44.483782468199998
asS'24388490'
p4464
(lp4465
F24.501240579099999
asS'33634992'
p4466
(lp4467
F19.380525397100001
asS'29072192'
p4468
(lp4469
F27.892674707099999
asS'2896958303'
p4470
(lp4471
F31.5285533962
asS'29967957'
p4472
(lp4473
F28.070825683599999
asS'3112890332'
p4474
(lp4475
F28.574552176400001
asS'770885527'
p4476
(lp4477
F28.134020399099999
asS'3067065392'
p4478
(lp4479
F36.638265834800002
asS'171695328'
p4480
(lp4481
F29.0283919522
asS'2889139022'
p4482
(lp4483
F33.534873522300003
asS'97612688'
p4484
(lp4485
F19.6261820808
asS'588777762'
p4486
(lp4487
F31.553276841700001
asS'3306792231'
p4488
(lp4489
F13
asS'20457375'
p4490
(lp4491
F31.6729806803
asS'259263671'
p4492
(lp4493
F23.574262516899999
asS'410752414'
p4494
(lp4495
F19.8130823053
asS'173170847'
p4496
(lp4497
F31.1455533689
asS'294801275'
p4498
(lp4499
F23.890740144199999
asS'14413370'
p4500
(lp4501
F29.3261185197
asS'398286778'
p4502
(lp4503
F32.140113387900001
asS'226168436'
p4504
(lp4505
F27.6085600093
asS'351805964'
p4506
(lp4507
F51.866836042599999
asS'809069024'
p4508
(lp4509
F30.323924546099999
asS'526650706'
p4510
(lp4511
F37.299619481599997
asS'352414668'
p4512
(lp4513
F30.368505351
asS'750606396'
p4514
(lp4515
F32.787017053500001
asS'2595966508'
p4516
(lp4517
F27.4414328079
asS'521955365'
p4518
(lp4519
F24.524198972200001
asS'18235613'
p4520
(lp4521
F32.115796962499999
asS'68071988'
p4522
(lp4523
F31.7867595839
asS'14295043'
p4524
(lp4525
F29.706757676100001
asS'1666246904'
p4526
(lp4527
F30.3132492875
asS'3063299422'
p4528
(lp4529
F27.244775603099999
asS'191501593'
p4530
(lp4531
F22.737046577200001
asS'3352556542'
p4532
(lp4533
F26.8747218235
asS'22842010'
p4534
(lp4535
F29.0873020507
asS'18111483'
p4536
(lp4537
F31.4501645715
asS'1137273540'
p4538
(lp4539
F23.769148452900001
asS'2259483181'
p4540
(lp4541
F15.2871207524
asS'2973019067'
p4542
(lp4543
F28.4330302698
asS'1160802216'
p4544
(lp4545
F26.631693119099999
asS'154704806'
p4546
(lp4547
F23.081758263299999
asS'511637039'
p4548
(lp4549
F30.419063014999999
asS'386243772'
p4550
(lp4551
F19.056134455399999
asS'76255864'
p4552
(lp4553
F34.626031874900001
asS'345716798'
p4554
(lp4555
F25.4186000218
asS'1259548171'
p4556
(lp4557
F43.636624701700001
asS'320915056'
p4558
(lp4559
F25.904357478200001
asS'20641613'
p4560
(lp4561
F25.1359880051
asS'3343095340'
p4562
(lp4563
F28.521065169100002
asS'552249623'
p4564
(lp4565
F18.7912551605
asS'3234053946'
p4566
(lp4567
F26.160761797999999
asS'2411472876'
p4568
(lp4569
F29.884938304199999
asS'1656209887'
p4570
(lp4571
F23.389577204399998
asS'29893766'
p4572
(lp4573
F31.298807241399999
asS'3365382569'
p4574
(lp4575
F31.679753161899999
asS'1260736442'
p4576
(lp4577
F22.647748615000001
asS'840498092'
p4578
(lp4579
F25.254298391700001
asS'27761892'
p4580
(lp4581
F29.3103834074
asS'543608212'
p4582
(lp4583
F40.926844948300001
asS'36991251'
p4584
(lp4585
F35.325476522899997
asS'52560268'
p4586
(lp4587
F16.821564035000002
asS'3039108088'
p4588
(lp4589
F28.362708664399999
asS'106256962'
p4590
(lp4591
F30.295454226099999
asS'2645395775'
p4592
(lp4593
F21.4562397282
asS'195785570'
p4594
(lp4595
F23.0035456524
asS'2351894587'
p4596
(lp4597
F25.502797764099999
asS'714733004'
p4598
(lp4599
F29.652266410799999
asS'248678364'
p4600
(lp4601
F28.791168997
asS'261068895'
p4602
(lp4603
F23.519280123400002
asS'3010762010'
p4604
(lp4605
F30.264342304199999
asS'142142545'
p4606
(lp4607
F29.513877040899999
asS'3235283990'
p4608
(lp4609
F22.600305803400001
asS'44172057'
p4610
(lp4611
F25.291878418500001
asS'82741933'
p4612
(lp4613
F25.838026920499999
asS'108419139'
p4614
(lp4615
F33.5329324163
asS'504016745'
p4616
(lp4617
F23.993378252599999
asS'1649038092'
p4618
(lp4619
F25.479075612100001
asS'14940452'
p4620
(lp4621
F32.438020455699998
asS'557333306'
p4622
(lp4623
F30.966507587599999
asS'20487541'
p4624
(lp4625
F33.557866401699997
asS'456868224'
p4626
(lp4627
F25.8778118275
asS'722480016'
p4628
(lp4629
F22.2021784322
asS'46870227'
p4630
(lp4631
F25.9632449038
asS'91458291'
p4632
(lp4633
F25.879290277100001
asS'790546093'
p4634
(lp4635
F31.282214982199999
asS'78897887'
p4636
(lp4637
F28.2567157069
asS'148860840'
p4638
(lp4639
F31.585255465700001
asS'514566407'
p4640
(lp4641
F37.079798706399998
asS'227339617'
p4642
(lp4643
F36.840568755
asS'1383038924'
p4644
(lp4645
F35.685362467899999
asS'384494254'
p4646
(lp4647
F30.8715188155
asS'440639555'
p4648
(lp4649
F34.3544417942
asS'763879189'
p4650
(lp4651
F25.5761127118
asS'228505560'
p4652
(lp4653
F23.019206428
asS'2973727618'
p4654
(lp4655
F35.695549041900001
asS'548988026'
p4656
(lp4657
F27.131053789500001
asS'448356919'
p4658
(lp4659
F20.016080011500001
asS'1367955956'
p4660
(lp4661
F26.461158634299998
asS'27852072'
p4662
(lp4663
F34.929553133299997
asS'2258147472'
p4664
(lp4665
F32.323311293000003
asS'1393600633'
p4666
(lp4667
F26.483897077200002
asS'3248746786'
p4668
(lp4669
F22.486703023600001
asS'2943710345'
p4670
(lp4671
F27.743286642000001
asS'256982070'
p4672
(lp4673
F28.709352706800001
asS'61314212'
p4674
(lp4675
F20.453192613100001
asS'228147604'
p4676
(lp4677
F31.4064975782
asS'2339795449'
p4678
(lp4679
F31.619296810000002
asS'3041519156'
p4680
(lp4681
F28.130208290900001
asS'2843887546'
p4682
(lp4683
F28.514966813699999
asS'375278130'
p4684
(lp4685
F23.9228508504
asS'424531790'
p4686
(lp4687
F26.601645556699999
asS'3150327612'
p4688
(lp4689
F16.455988407
asS'111704438'
p4690
(lp4691
F35.589975079299997
asS'2300744983'
p4692
(lp4693
F28.254049678000001
asS'2160658435'
p4694
(lp4695
F35.130163485700002
asS'2572033740'
p4696
(lp4697
F39.859300166399997
asS'3293648951'
p4698
(lp4699
F26.622806035
as.