(dp1
S'790693135'
p2
(lp3
F0.28106757087899997
asS'990269509'
p4
(lp5
F-0.084112460415800006
asS'94523171'
p6
(lp7
F-2.9634950120400001
asS'2892954268'
p8
(lp9
F-0.29967119722000002
asS'2399958906'
p10
(lp11
F-0.120747018481
asS'2329041289'
p12
(lp13
F-0.316591436605
asS'126652559'
p14
(lp15
F0.82449788902800003
asS'3345942753'
p16
(lp17
F0.60759918490300002
asS'57041662'
p18
(lp19
F-0.68555912484600001
asS'489885788'
p20
(lp21
F1.1287004742
asS'173321172'
p22
(lp23
F1.1993702477899999
asS'3298840127'
p24
(lp25
F4.57621458717
asS'403887149'
p26
(lp27
F-0.12347271747000001
asS'294268053'
p28
(lp29
F-3.4514445257799999
asS'955698157'
p30
(lp31
F-0.44737163141399999
asS'19432346'
p32
(lp33
F-0.54140181987000002
asS'2771704583'
p34
(lp35
F-0.37531560394399999
asS'2834570816'
p36
(lp37
F-1.6199307384399999
asS'2391370394'
p38
(lp39
F-0.62355894967299996
asS'288429959'
p40
(lp41
F-0.29047952139
asS'2188828022'
p42
(lp43
F-1.2806363388199999
asS'878546018'
p44
(lp45
F0.048987578851200003
asS'113092693'
p46
(lp47
F-1.0439083737299999
asS'47104135'
p48
(lp49
F-0.60522410928699999
asS'2178564559'
p50
(lp51
F-1.63929453058
asS'15066876'
p52
(lp53
F-0.81421058046999994
asS'1870184766'
p54
(lp55
F-1.01785757382
asS'1146809210'
p56
(lp57
F0.082724066785499997
asS'310097198'
p58
(lp59
F-1.6081264133199999
asS'1910770484'
p60
(lp61
F-0.21644967368099999
asS'229158981'
p62
(lp63
F2.9328965952799999
asS'1313442830'
p64
(lp65
F-0.16902013438300001
asS'1724303324'
p66
(lp67
F-0.798839331032
asS'253742998'
p68
(lp69
F1.87746804141
asS'162114552'
p70
(lp71
F-0.48533858823499998
asS'2233135202'
p72
(lp73
F3.2341983553700002
asS'62697366'
p74
(lp75
F0.23955808299199999
asS'263897316'
p76
(lp77
F2.2833806995099999
asS'259332340'
p78
(lp79
F0.34880266930600001
asS'1876171898'
p80
(lp81
F1.0018938022299999
asS'285097277'
p82
(lp83
F-0.95857227938800005
asS'1245066085'
p84
(lp85
F0.45404005758600002
asS'778712898'
p86
(lp87
F-2.8773340787800001
asS'710757859'
p88
(lp89
F0.71718748388599995
asS'1395074425'
p90
(lp91
F-1.14053788652
asS'2347855458'
p92
(lp93
F1.4354028086599999
asS'1650388410'
p94
(lp95
F0.60132987070400001
asS'25644429'
p96
(lp97
F-1.3903556459799999
asS'18665002'
p98
(lp99
F-0.24949013165
asS'29941615'
p100
(lp101
F-0.78467011356899996
asS'531598877'
p102
(lp103
F-0.17501070439700001
asS'1174456664'
p104
(lp105
F0.39831317254999998
asS'374572659'
p106
(lp107
F-0.914585038051
asS'2743380299'
p108
(lp109
F-1.0726669260599999
asS'2377530392'
p110
(lp111
F0.012366740949199999
asS'933595302'
p112
(lp113
F0.64348089437599998
asS'2517983482'
p114
(lp115
F0.811505789915
asS'246774523'
p116
(lp117
F0.88641155980999997
asS'244804238'
p118
(lp119
F-1.3086522149199999
asS'144500227'
p120
(lp121
F-1.15169481611
asS'2250167449'
p122
(lp123
F1.79645871212
asS'16554942'
p124
(lp125
F-1.5650230628999999
asS'1455683906'
p126
(lp127
F-0.55145455011900002
asS'14803951'
p128
(lp129
F-0.095352543182700006
asS'204355964'
p130
(lp131
F-1.1249065718
asS'2250739063'
p132
(lp133
F-1.0214668260599999
asS'2806775116'
p134
(lp135
F2.3423025819099998
asS'1916081982'
p136
(lp137
F0.311815672622
asS'2568649342'
p138
(lp139
F-0.27431086143400002
asS'1597398924'
p140
(lp141
F-0.85386716888500003
asS'252309149'
p142
(lp143
F-0.42103599197000002
asS'2720677413'
p144
(lp145
F0.59456469556699998
asS'2381198785'
p146
(lp147
F0.39255954748299998
asS'245050578'
p148
(lp149
F-0.93126250695599999
asS'24413950'
p150
(lp151
F-0.057063021982099997
asS'274335684'
p152
(lp153
F-1.5939634245500001
asS'728746483'
p154
(lp155
F-2.7910365257400001
asS'1279365926'
p156
(lp157
F0.73151230710899995
asS'12897402'
p158
(lp159
F0.70184626194800004
asS'2834414549'
p160
(lp161
F0.85461946432900004
asS'376370548'
p162
(lp163
F-0.67511178841399999
asS'355655086'
p164
(lp165
F1.49503207823
asS'226906498'
p166
(lp167
F0.34019512548899999
asS'1361202602'
p168
(lp169
F-2.3514469929100001
asS'28043760'
p170
(lp171
F0.12249142924500001
asS'2915583070'
p172
(lp173
F-1.0093523129699999
asS'2733656017'
p174
(lp175
F-0.41263230954000002
asS'20004501'
p176
(lp177
F-1.1773506836800001
asS'80351619'
p178
(lp179
F-1.2924599246099999
asS'332390008'
p180
(lp181
F2.0433745404299999
asS'25678502'
p182
(lp183
F-2.1667815208199999
asS'3248242181'
p184
(lp185
F1.1914932647300001
asS'177280097'
p186
(lp187
F0.66612645774699997
asS'20702013'
p188
(lp189
F0.90457367319000004
asS'151178659'
p190
(lp191
F-0.85035368455399996
asS'20627081'
p192
(lp193
F0.58401702066500005
asS'24546672'
p194
(lp195
F1.77837041026
asS'87506526'
p196
(lp197
F-1.4837129287599999
asS'1050455592'
p198
(lp199
F0.32723715486299998
asS'2159222945'
p200
(lp201
F-1.0809526919000001
asS'1716904873'
p202
(lp203
F-1.72074497946
asS'2171549541'
p204
(lp205
F1.0228448749100001
asS'2323631724'
p206
(lp207
F0.00155758922083
asS'3335138362'
p208
(lp209
F0.60143274879499997
asS'163785600'
p210
(lp211
F-1.9527725903199999
asS'1210753874'
p212
(lp213
F2.01645969023
asS'217436303'
p214
(lp215
F0.59332344760800004
asS'48124610'
p216
(lp217
F0.070044082138099997
asS'2562091886'
p218
(lp219
F2.7506300547100002
asS'373125198'
p220
(lp221
F0.40174858741399999
asS'1242194030'
p222
(lp223
F-0.41853600911400002
asS'2737892870'
p224
(lp225
F0.760774807246
asS'923641921'
p226
(lp227
F0.18413207847800001
asS'1172143405'
p228
(lp229
F0.61095463436300002
asS'2738371508'
p230
(lp231
F2.3480243680999999
asS'1088909654'
p232
(lp233
F1.0868103367299999
asS'601361069'
p234
(lp235
F0.99176474514599999
asS'1448986688'
p236
(lp237
F0.80689319544299998
asS'770658414'
p238
(lp239
F-0.76345644969699999
asS'2172704688'
p240
(lp241
F0.76118335400699999
asS'67958783'
p242
(lp243
F-1.5981553882199999
asS'7846072'
p244
(lp245
F-0.79769432586699995
asS'93246877'
p246
(lp247
F-0.13083987490099999
asS'2317221572'
p248
(lp249
F3.1299976541499999
asS'2924408093'
p250
(lp251
F1.00529276974
asS'22067872'
p252
(lp253
F-1.9724527088899999
asS'181813506'
p254
(lp255
F-0.49641696330099999
asS'156669366'
p256
(lp257
F0.60703233385699995
asS'115883210'
p258
(lp259
F-0.51890099845600002
asS'937704163'
p260
(lp261
F-0.95151586804499999
asS'3069923951'
p262
(lp263
F-2.21462826007
asS'1283582233'
p264
(lp265
F0.704146963904
asS'15170286'
p266
(lp267
F-0.44682093987600002
asS'38031897'
p268
(lp269
F-1.2982380082
asS'2165411305'
p270
(lp271
F2.38753994642
asS'560452828'
p272
(lp273
F-0.33376206780599998
asS'437106458'
p274
(lp275
F-0.47345920853599999
asS'18512848'
p276
(lp277
F1.1719853779
asS'318667006'
p278
(lp279
F0.68649698957100003
asS'1671813086'
p280
(lp281
F-0.071243371504899997
asS'49161541'
p282
(lp283
F0.65714019768700005
asS'113437689'
p284
(lp285
F0.23126563733800001
asS'1548835656'
p286
(lp287
F1.55868606198
asS'273617799'
p288
(lp289
F-0.53194342807899997
asS'1949713398'
p290
(lp291
F-1.8485445171999999
asS'128633483'
p292
(lp293
F0.114817743438
asS'1154412506'
p294
(lp295
F-0.150124648907
asS'3089717234'
p296
(lp297
F-1.69245246324
asS'103747812'
p298
(lp299
F1.4413298164399999
asS'38445467'
p300
(lp301
F0.046954464033999999
asS'336867747'
p302
(lp303
F0.425649855844
asS'1670645592'
p304
(lp305
F-0.54919746824899995
asS'549389967'
p306
(lp307
F-1.9947373427999999
asS'16185232'
p308
(lp309
F0.33215246955900002
asS'61105042'
p310
(lp311
F-2.12126380122
asS'573912263'
p312
(lp313
F-0.68178275136599997
asS'2469234901'
p314
(lp315
F-0.62698236733699997
asS'189028749'
p316
(lp317
F1.9445720235699999
asS'21909984'
p318
(lp319
F0.34614304491600001
asS'63195884'
p320
(lp321
F-1.0411639770500001
asS'118768811'
p322
(lp323
F-0.038917924371099998
asS'362576854'
p324
(lp325
F0.53004475573900001
asS'29584150'
p326
(lp327
F0.573531081941
asS'162959947'
p328
(lp329
F-1.2165686598300001
asS'551509847'
p330
(lp331
F0.17060558555399999
asS'757634750'
p332
(lp333
F-1.0399938390200001
asS'1566855433'
p334
(lp335
F0.65803296196899996
asS'2766921938'
p336
(lp337
F-0.58315838411400001
asS'123791065'
p338
(lp339
F-0.60399844385900003
asS'65142014'
p340
(lp341
F-0.87438093878500001
asS'94642746'
p342
(lp343
F-0.29620903443899999
asS'429260925'
p344
(lp345
F-4.9204065183600001
asS'330184418'
p346
(lp347
F1.1106843757
asS'1874616600'
p348
(lp349
F-0.51734469381500003
asS'32313617'
p350
(lp351
F-0.48182848082099999
asS'323385721'
p352
(lp353
F-2.1036678698900002
asS'292976071'
p354
(lp355
F-0.500194200192
asS'168286179'
p356
(lp357
F-0.67893372399499996
asS'921983294'
p358
(lp359
F-0.17104760309200001
asS'245462185'
p360
(lp361
F1.0441613467099999
asS'246533149'
p362
(lp363
F-0.96603458884100002
asS'530963739'
p364
(lp365
F0.0285178778939
asS'469664311'
p366
(lp367
F0.25176731420199999
asS'1735264291'
p368
(lp369
F-1.7239410766100001
asS'738696752'
p370
(lp371
F1.1890506573099999
asS'909106970'
p372
(lp373
F-1.6377387913100001
asS'537319315'
p374
(lp375
F-0.96319977972899995
asS'26071396'
p376
(lp377
F3.00473061347
asS'2886941025'
p378
(lp379
F-0.21992002430999999
asS'1450205844'
p380
(lp381
F0.075605562131599996
asS'33346915'
p382
(lp383
F0.96744809088600003
asS'1925202294'
p384
(lp385
F-2.9073457836599998
asS'547904199'
p386
(lp387
F0.0146806911192
asS'1068480204'
p388
(lp389
F-0.743310538322
asS'748477502'
p390
(lp391
F-0.36140643807599998
asS'590173575'
p392
(lp393
F-0.70852094878899996
asS'540660963'
p394
(lp395
F-0.20802337905400001
asS'141121573'
p396
(lp397
F-1.9772813648700001
asS'498700046'
p398
(lp399
F0.31142399733699999
asS'1549127594'
p400
(lp401
F-0.73400149771500001
asS'1494592956'
p402
(lp403
F-0.45085444874000002
asS'16717148'
p404
(lp405
F1.6261612651499999
asS'582592612'
p406
(lp407
F-0.37142114444300001
asS'29757178'
p408
(lp409
F-0.64383320180900006
asS'213620244'
p410
(lp411
F0.54071089668000005
asS'1053036164'
p412
(lp413
F2.65101510043
asS'741501228'
p414
(lp415
F-0.096928295798399997
asS'3057295002'
p416
(lp417
F-0.26853321076600001
asS'203650771'
p418
(lp419
F-0.498383658043
asS'30559248'
p420
(lp421
F-0.95058691200099998
asS'305729040'
p422
(lp423
F0.58211642828999999
asS'1668786650'
p424
(lp425
F-0.64388731767399998
asS'307409976'
p426
(lp427
F0.61417116573099995
asS'304525409'
p428
(lp429
F-1.0917442316599999
asS'1370900198'
p430
(lp431
F-0.089303039917900007
asS'3353633032'
p432
(lp433
F0.22721419704599999
asS'30800485'
p434
(lp435
F2.4578473035599999
asS'28918980'
p436
(lp437
F-1.64564888568
asS'486090167'
p438
(lp439
F-0.80810359788300001
asS'3188005545'
p440
(lp441
F-1.8774042256900001
asS'2821082002'
p442
(lp443
F-0.35376206895399998
asS'95064543'
p444
(lp445
F-0.70465604686399996
asS'2159643042'
p446
(lp447
F-1.0944079062500001
asS'196531533'
p448
(lp449
F-0.54066752033499998
asS'51716011'
p450
(lp451
F0.56685533262900001
asS'37374348'
p452
(lp453
F1.1965477706500001
asS'741063613'
p454
(lp455
F-1.10367192493
asS'2670742214'
p456
(lp457
F0.91871816007999996
asS'155967817'
p458
(lp459
F-0.92395140052500002
asS'25769369'
p460
(lp461
F-1.3236626944800001
asS'41993876'
p462
(lp463
F-0.61009632810900005
asS'3160361312'
p464
(lp465
F-0.452378267158
asS'77809578'
p466
(lp467
F1.8340166223700001
asS'1400503214'
p468
(lp469
F-0.66495358332499999
asS'811683181'
p470
(lp471
F2.28614929052
asS'3342381723'
p472
(lp473
F-0.085761066278499998
asS'563613307'
p474
(lp475
F-0.53416930800600004
asS'488911358'
p476
(lp477
F0.65763873341300005
asS'22019443'
p478
(lp479
F1.2051652019700001
asS'2636759396'
p480
(lp481
F-0.71501709929500001
asS'3098137655'
p482
(lp483
F1.30110113602
asS'160310017'
p484
(lp485
F-2.2509522464999998
asS'1528659481'
p486
(lp487
F2.4053109135900002
asS'302335399'
p488
(lp489
F-5.94190202421
asS'25669608'
p490
(lp491
F-0.45619783265000002
asS'19597938'
p492
(lp493
F0.60298314651899998
asS'132049786'
p494
(lp495
F-0.48441274871399997
asS'436351349'
p496
(lp497
F0.39461557800800001
asS'143795236'
p498
(lp499
F-0.64814212315999997
asS'3312275805'
p500
(lp501
F-1.30994280867
asS'333934967'
p502
(lp503
F-0.0020169342592500001
asS'229670513'
p504
(lp505
F-0.94687181705699996
asS'48599448'
p506
(lp507
F1.2432416050399999
asS'3195957620'
p508
(lp509
F1.5006696536499999
asS'133402768'
p510
(lp511
F-0.43974818613099997
asS'536563145'
p512
(lp513
F0.0285807708495
asS'2490529512'
p514
(lp515
F1.0259862870800001
asS'386815752'
p516
(lp517
F-0.99118875280800001
asS'229138094'
p518
(lp519
F-0.74606963248000002
asS'546009548'
p520
(lp521
F1.32388161568
asS'30967930'
p522
(lp523
F-1.6070465941900001
asS'1071058956'
p524
(lp525
F0.0062222266439000001
asS'212293372'
p526
(lp527
F1.0424452159499999
asS'297943941'
p528
(lp529
F-1.51126371928
asS'289912507'
p530
(lp531
F-0.39069129075100001
asS'531875717'
p532
(lp533
F2.84619588232
asS'3217290237'
p534
(lp535
F0.145406285271
asS'82774733'
p536
(lp537
F-0.94860845845099995
asS'893412883'
p538
(lp539
F-1.6324467724
asS'376387781'
p540
(lp541
F-0.92422390384499997
asS'535803197'
p542
(lp543
F0.78549574467600003
asS'2794221156'
p544
(lp545
F1.1191014155300001
asS'2971467125'
p546
(lp547
F-1.1061576901900001
asS'305567341'
p548
(lp549
F0.351251887845
asS'215876901'
p550
(lp551
F-0.093413638297500004
asS'50717228'
p552
(lp553
F-0.53138916192399999
asS'1566785113'
p554
(lp555
F-1.27095882291
asS'3188611670'
p556
(lp557
F0.18934563037300001
asS'760786218'
p558
(lp559
F0.15805959949000001
asS'1009689475'
p560
(lp561
F-0.60445567486200003
asS'93814009'
p562
(lp563
F0.843506822032
asS'170791380'
p564
(lp565
F0.277975461639
asS'266277152'
p566
(lp567
F0.0622342301795
asS'28321654'
p568
(lp569
F-0.38073908275700002
asS'2411506334'
p570
(lp571
F-0.55443052787699998
asS'3251305226'
p572
(lp573
F0.236969167254
asS'3024312490'
p574
(lp575
F-0.96233794213699997
asS'176657599'
p576
(lp577
F-1.29174265601
asS'206972203'
p578
(lp579
F0.81102042404700003
asS'2784392406'
p580
(lp581
F0.18712253877000001
asS'1513958744'
p582
(lp583
F-0.93903330817399999
asS'934438520'
p584
(lp585
F-0.0053678764459899999
asS'102415827'
p586
(lp587
F0.154182863408
asS'433645820'
p588
(lp589
F1.88435058281
asS'3081420210'
p590
(lp591
F-0.43534421729099998
asS'3119839568'
p592
(lp593
F-0.34316895292799998
asS'483405140'
p594
(lp595
F3.5230785732399998
asS'1506087619'
p596
(lp597
F0.034582669517499998
asS'159605210'
p598
(lp599
F-1.26168167331
asS'721325751'
p600
(lp601
F2.5857179535900001
asS'2714736302'
p602
(lp603
F-1.16694699486
asS'347927563'
p604
(lp605
F-2.4437814161100002
asS'3052054201'
p606
(lp607
F1.15917285256
asS'2519041406'
p608
(lp609
F0.22872741462999999
asS'380721869'
p610
(lp611
F-0.36022943020800002
asS'468379383'
p612
(lp613
F1.328518659
asS'2588321996'
p614
(lp615
F-1.6676832661100001
asS'391201809'
p616
(lp617
F-0.32257649829200002
asS'197918942'
p618
(lp619
F0.037974101561300003
asS'262238760'
p620
(lp621
F0.286384897237
asS'3083012555'
p622
(lp623
F-1.23655542021
asS'131118806'
p624
(lp625
F0.025560462239799998
asS'312480764'
p626
(lp627
F0.23831075250600001
asS'368623629'
p628
(lp629
F-1.3892220445900001
asS'67474314'
p630
(lp631
F0.53378048403199996
asS'2931942752'
p632
(lp633
F-1.4936766293699999
asS'1636125805'
p634
(lp635
F-0.10510964839799999
asS'19728844'
p636
(lp637
F-0.472939060982
asS'408299234'
p638
(lp639
F0.858309899968
asS'2935492656'
p640
(lp641
F-1.0402753123899999
asS'2321093156'
p642
(lp643
F2.0891594737100001
asS'2915212368'
p644
(lp645
F0.110995136731
asS'171152361'
p646
(lp647
F-1.0670833199700001
asS'355925674'
p648
(lp649
F0.040805494943899998
asS'2480435185'
p650
(lp651
F0.72309004391499998
asS'1556984887'
p652
(lp653
F-0.18414191609800001
asS'3017893369'
p654
(lp655
F-1.3146264673400001
asS'2385515678'
p656
(lp657
F-2.0684838768599998
asS'113907168'
p658
(lp659
F0.27736613496899998
asS'3233824334'
p660
(lp661
F2.5230593990900001
asS'134446334'
p662
(lp663
F0.0046705789180799999
asS'60420690'
p664
(lp665
F0.68531301339899997
asS'996156068'
p666
(lp667
F-1.36557735434
asS'2794490467'
p668
(lp669
F0.10321755981400001
asS'207834313'
p670
(lp671
F0.16265684734300001
asS'2588663610'
p672
(lp673
F-1.4519106686000001
asS'517997193'
p674
(lp675
F0.68777351690499999
asS'310100825'
p676
(lp677
F-0.51955960992299999
asS'373364557'
p678
(lp679
F-0.58499108826099999
asS'28152598'
p680
(lp681
F0.059010522338199999
asS'36005781'
p682
(lp683
F-0.025628746004700002
asS'3134097521'
p684
(lp685
F0.43181523040800002
asS'3309419164'
p686
(lp687
F-2.6025752944299998
asS'1635259598'
p688
(lp689
F0.065563050461600006
asS'245115093'
p690
(lp691
F0.39158506332600002
asS'511231057'
p692
(lp693
F0.98124433600200001
asS'2918621564'
p694
(lp695
F2.5529086921499999
asS'1675930123'
p696
(lp697
F0.66311380401800002
asS'172081908'
p698
(lp699
F0.717613986945
asS'65254420'
p700
(lp701
F0.187758992343
asS'16134203'
p702
(lp703
F0.037552186491100002
asS'40684243'
p704
(lp705
F2.29821557567
asS'87957969'
p706
(lp707
F0.79217149262800002
asS'284677404'
p708
(lp709
F0.061652631524299999
asS'264262161'
p710
(lp711
F0.19787183490900001
asS'321711032'
p712
(lp713
F2.3023788262
asS'2863774500'
p714
(lp715
F-0.51057971440399996
asS'1335392197'
p716
(lp717
F-1.3860826732
asS'24828490'
p718
(lp719
F0.61376804433700005
asS'2956259109'
p720
(lp721
F-1.9869928488299999
asS'43100087'
p722
(lp723
F-1.3569975166699999
asS'358730722'
p724
(lp725
F0.44657996490599999
asS'1883333624'
p726
(lp727
F0.33548547149699998
asS'608461233'
p728
(lp729
F-0.018170563509800002
asS'734859698'
p730
(lp731
F-0.14255770320399999
asS'387194480'
p732
(lp733
F1.4489994956700001
asS'963507068'
p734
(lp735
F-3.49109863258
asS'34993742'
p736
(lp737
F0.74761860400299995
asS'1636106844'
p738
(lp739
F-1.36846672484
asS'2587637972'
p740
(lp741
F-1.7673255488799999
asS'178985300'
p742
(lp743
F-0.20781366706099999
asS'25030651'
p744
(lp745
F-1.7950770682799999
asS'130977700'
p746
(lp747
F-0.51243439676400004
asS'309298423'
p748
(lp749
F0.99115258611699997
asS'2904695183'
p750
(lp751
F-0.403342329148
asS'3064348854'
p752
(lp753
F0.94082570235600005
asS'91158484'
p754
(lp755
F0.33647879267500003
asS'291256350'
p756
(lp757
F-1.44646655302
asS'379385416'
p758
(lp759
F-0.50010936097600001
asS'550273827'
p760
(lp761
F-1.2424127217200001
asS'577337789'
p762
(lp763
F0.92055658502399995
asS'2958943328'
p764
(lp765
F0.65369916885199997
asS'2792946075'
p766
(lp767
F1.86640794524
asS'230020913'
p768
(lp769
F-1.1377640464100001
asS'3257810966'
p770
(lp771
F-1.86211318854
asS'2481532026'
p772
(lp773
F-0.16878387219999999
asS'1891615903'
p774
(lp775
F0.39985832574199998
asS'142592735'
p776
(lp777
F-0.69125332873900003
asS'243801539'
p778
(lp779
F0.28295942180099998
asS'203333954'
p780
(lp781
F-0.62791630440400004
asS'623033353'
p782
(lp783
F2.09277915911
asS'1081973952'
p784
(lp785
F1.54335238826
asS'373165900'
p786
(lp787
F-0.93932640194700001
asS'471333409'
p788
(lp789
F-0.73607526837100001
asS'185991141'
p790
(lp791
F-1.1114634338
asS'2193063256'
p792
(lp793
F-0.230716586901
asS'32765764'
p794
(lp795
F0.14249853745400001
asS'400043405'
p796
(lp797
F3.3625297862800001
asS'27528481'
p798
(lp799
F0.68103840899000001
asS'273641006'
p800
(lp801
F2.8824413846599999
asS'3243175638'
p802
(lp803
F0.68109816665300005
asS'2449650492'
p804
(lp805
F-1.84688468487
asS'1508087564'
p806
(lp807
F2.1899461430599998
asS'3142839960'
p808
(lp809
F-0.95315482072400004
asS'399395577'
p810
(lp811
F-0.47002563660800001
asS'67151580'
p812
(lp813
F-1.15328199244
asS'2362104414'
p814
(lp815
F-0.18402472038500001
asS'1005383936'
p816
(lp817
F1.8599126215199999
asS'404923541'
p818
(lp819
F0.0545374939194
asS'75109799'
p820
(lp821
F-1.00564705137
asS'171685797'
p822
(lp823
F-1.5829985316799999
asS'21415068'
p824
(lp825
F-1.62368098779
asS'256209052'
p826
(lp827
F2.5984752981599999
asS'16187025'
p828
(lp829
F0.58635636794199997
asS'254405503'
p830
(lp831
F-1.2782931632500001
asS'1675284572'
p832
(lp833
F2.3644415654099999
asS'355470606'
p834
(lp835
F-1.4101754470000001
asS'2603857171'
p836
(lp837
F-1.06836332794
asS'324119016'
p838
(lp839
F0.41847343538100001
asS'533747731'
p840
(lp841
F-0.66414726191899998
asS'2798120162'
p842
(lp843
F-1.7445271226700001
asS'248454003'
p844
(lp845
F0.56247257214799995
asS'710686688'
p846
(lp847
F0.59152406207999997
asS'56350690'
p848
(lp849
F0.0016995806985399999
asS'2942346460'
p850
(lp851
F-0.18983845964099999
asS'331313453'
p852
(lp853
F-0.81382424182199997
asS'2987979504'
p854
(lp855
F5.8303705936499997
asS'2933804643'
p856
(lp857
F0.046373066462100002
asS'560198159'
p858
(lp859
F-0.54894669315699995
asS'3102023268'
p860
(lp861
F2.4978690851500001
asS'23885775'
p862
(lp863
F-1.37123846265
asS'124051525'
p864
(lp865
F-0.15573163932600001
asS'1358107219'
p866
(lp867
F0.81922586543999998
asS'420572254'
p868
(lp869
F-2.05741201873
asS'805547964'
p870
(lp871
F-2.92098822656
asS'19802846'
p872
(lp873
F-0.17644273084699999
asS'2275254024'
p874
(lp875
F1.01972637903
asS'3048509299'
p876
(lp877
F0.19214727853300001
asS'313121798'
p878
(lp879
F0.069605744076399995
asS'1093199732'
p880
(lp881
F-0.67584280647600004
asS'3245355291'
p882
(lp883
F0.93016530932599994
asS'213391346'
p884
(lp885
F0.68240459362100003
asS'2972740510'
p886
(lp887
F-1.7136732648299999
asS'2873316438'
p888
(lp889
F-2.1585850532699999
asS'1403424721'
p890
(lp891
F-0.105911209218
asS'856463456'
p892
(lp893
F-0.498140967313
asS'88875512'
p894
(lp895
F-0.066615334928899997
asS'574136126'
p896
(lp897
F1.8367003079699999
asS'387485416'
p898
(lp899
F1.8581720269799999
asS'2443269734'
p900
(lp901
F-0.55762623315199999
asS'32138442'
p902
(lp903
F-0.59211137693899996
asS'2473562064'
p904
(lp905
F0.68624044391100003
asS'460422982'
p906
(lp907
F-0.77654398298899996
asS'1156371384'
p908
(lp909
F0.71042972308100005
asS'24572630'
p910
(lp911
F-0.413081577689
asS'370324628'
p912
(lp913
F-1.3678172340800001
asS'57263670'
p914
(lp915
F0.87283629258999995
asS'178332153'
p916
(lp917
F0.67426994221799996
asS'50243741'
p918
(lp919
F0.53250733297300001
asS'2436947964'
p920
(lp921
F1.57249753685
asS'1374764281'
p922
(lp923
F0.36699099821100001
asS'2970330011'
p924
(lp925
F-1.03973073717
asS'2956241626'
p926
(lp927
F-1.15385859489
asS'510823412'
p928
(lp929
F-0.51909673937699996
asS'33336675'
p930
(lp931
F-1.35215069771
asS'3225735272'
p932
(lp933
F-0.44136230679999999
asS'52436759'
p934
(lp935
F-3.0528035935700002
asS'121535535'
p936
(lp937
F2.16543395334
asS'2483908675'
p938
(lp939
F-4.64011244785
asS'20812098'
p940
(lp941
F0.032903148466000003
asS'412558070'
p942
(lp943
F1.2488069502700001
asS'62617728'
p944
(lp945
F-1.2812399276699999
asS'89547441'
p946
(lp947
F1.1116106111099999
asS'411485640'
p948
(lp949
F-0.75932451216999997
asS'27587178'
p950
(lp951
F-0.35554524123699999
asS'607630997'
p952
(lp953
F-1.65848375549
asS'2786939868'
p954
(lp955
F0.15726383196499999
asS'711602922'
p956
(lp957
F0.069689923387800001
asS'593296499'
p958
(lp959
F-0.37286573614000001
asS'17022638'
p960
(lp961
F0.61623886083000001
asS'1426676066'
p962
(lp963
F-2.0179480173800002
asS'3255039704'
p964
(lp965
F2.3387269648100002
asS'512627900'
p966
(lp967
F-0.95903001812199995
asS'3181603264'
p968
(lp969
F0.25076673839199998
asS'48762009'
p970
(lp971
F-0.139151920915
asS'3308732037'
p972
(lp973
F-1.64197652265
asS'54032913'
p974
(lp975
F-2.2088693045899999
asS'232865000'
p976
(lp977
F1.8337239452
asS'741858643'
p978
(lp979
F-1.01100836103
asS'1295672767'
p980
(lp981
F-1.01477187149
asS'276895252'
p982
(lp983
F-1.9882048245299999
asS'252728214'
p984
(lp985
F1.38727274277
asS'252270001'
p986
(lp987
F-0.94799220923299998
asS'45454970'
p988
(lp989
F1.3400796999
asS'220826934'
p990
(lp991
F-0.55548271465800003
asS'2547170155'
p992
(lp993
F0.15823782576000001
asS'395381456'
p994
(lp995
F2.6325950381199998
asS'828155418'
p996
(lp997
F2.0153124777400002
asS'91562723'
p998
(lp999
F-0.54371954893600005
asS'286910376'
p1000
(lp1001
F1.8456518011900001
asS'1438949354'
p1002
(lp1003
F-2.0638643831599999
asS'3152299939'
p1004
(lp1005
F1.1817369171100001
asS'449603053'
p1006
(lp1007
F-0.89041408666699995
asS'15335491'
p1008
(lp1009
F0.023473313790800001
asS'2993036154'
p1010
(lp1011
F0.76832336720600003
asS'2516013102'
p1012
(lp1013
F0.83204978165900001
asS'1222740728'
p1014
(lp1015
F1.0888628097999999
asS'103000520'
p1016
(lp1017
F-0.78399280977999997
asS'713564221'
p1018
(lp1019
F-1.11142502764
asS'3142593119'
p1020
(lp1021
F-0.39332669679600002
asS'219904325'
p1022
(lp1023
F-0.37829286198200002
asS'1125492462'
p1024
(lp1025
F-0.70962142565700004
asS'66030606'
p1026
(lp1027
F1.6690558394099999
asS'1045239187'
p1028
(lp1029
F-1.82568488472
asS'69980982'
p1030
(lp1031
F1.68352595071
asS'26350601'
p1032
(lp1033
F-0.330414301922
asS'2724370473'
p1034
(lp1035
F1.13535207379
asS'2759480186'
p1036
(lp1037
F-1.95690409415
asS'969012494'
p1038
(lp1039
F1.2489785340799999
asS'522110370'
p1040
(lp1041
F0.69007707010599995
asS'354440308'
p1042
(lp1043
F0.55852839935099996
asS'231683938'
p1044
(lp1045
F-1.05759626067
asS'846649044'
p1046
(lp1047
F-0.30928250479800001
asS'26958961'
p1048
(lp1049
F-1.1191289550800001
asS'2845021300'
p1050
(lp1051
F-0.223481650877
asS'54253578'
p1052
(lp1053
F0.26431131240200001
asS'805092764'
p1054
(lp1055
F-0.38407117689499998
asS'25437536'
p1056
(lp1057
F-0.00076620678233899997
asS'471145656'
p1058
(lp1059
F-1.03729582042
asS'593986993'
p1060
(lp1061
F1.5609628499799999
asS'135627420'
p1062
(lp1063
F-0.54167844160099998
asS'21109485'
p1064
(lp1065
F0.779702046609
asS'129960904'
p1066
(lp1067
F0.66666588881599997
asS'32200853'
p1068
(lp1069
F-0.63046372314400001
asS'25429361'
p1070
(lp1071
F0.32693387844400001
asS'2376582930'
p1072
(lp1073
F-1.67278948955
asS'397860713'
p1074
(lp1075
F-1.4629887362
asS'26313306'
p1076
(lp1077
F-1.2881269126399999
asS'347500057'
p1078
(lp1079
F-0.28547136550000002
asS'38308265'
p1080
(lp1081
F-0.40319069504400001
asS'330472602'
p1082
(lp1083
F-0.51597458148200004
asS'285968258'
p1084
(lp1085
F1.57169297548
asS'63291287'
p1086
(lp1087
F0.237260275923
asS'849769500'
p1088
(lp1089
F0.74838955622799996
asS'3224829778'
p1090
(lp1091
F2.4721097211499998
asS'131555214'
p1092
(lp1093
F-2.08475540359
asS'1938597084'
p1094
(lp1095
F-0.90057306897099998
asS'2788880730'
p1096
(lp1097
F0.238075670337
asS'3001327774'
p1098
(lp1099
F-0.43973803193599997
asS'588441390'
p1100
(lp1101
F1.1879280742
asS'230899742'
p1102
(lp1103
F0.75296043087300002
asS'1531791140'
p1104
(lp1105
F-0.011020457649799999
asS'19215129'
p1106
(lp1107
F-0.89603466967199996
asS'576796855'
p1108
(lp1109
F0.396619388505
asS'2553149010'
p1110
(lp1111
F-0.32804013890799999
asS'433684935'
p1112
(lp1113
F0.85140714475299994
asS'267634630'
p1114
(lp1115
F-0.86403129229999998
asS'25564023'
p1116
(lp1117
F0.86892027459999999
asS'34055339'
p1118
(lp1119
F2.4311310951
asS'61266376'
p1120
(lp1121
F-0.336033511452
asS'1090012232'
p1122
(lp1123
F-0.34966084699799999
asS'23953082'
p1124
(lp1125
F-0.14492569775200001
asS'3152384252'
p1126
(lp1127
F1.23980269209
asS'254744099'
p1128
(lp1129
F8.8145000611699999e-05
asS'288981065'
p1130
(lp1131
F-0.92779810996199996
asS'168819220'
p1132
(lp1133
F-0.43251423124600002
asS'1978031743'
p1134
(lp1135
F-0.87432732221700005
asS'1861023685'
p1136
(lp1137
F-0.39754839774799999
asS'44481898'
p1138
(lp1139
F-1.2814740228699999
asS'408752680'
p1140
(lp1141
F1.0072272880599999
asS'382153540'
p1142
(lp1143
F0.23173587553899999
asS'2952468264'
p1144
(lp1145
F-0.19336666498399999
asS'1057244852'
p1146
(lp1147
F2.8188528645600002
asS'1417728643'
p1148
(lp1149
F-0.036245747986300002
asS'14671904'
p1150
(lp1151
F0.447655638031
asS'1270528207'
p1152
(lp1153
F-0.47440915878399997
asS'480018197'
p1154
(lp1155
F-2.5125328869699999
asS'24172701'
p1156
(lp1157
F-2.2467695949099999
asS'14745550'
p1158
(lp1159
F1.1835010744700001
asS'2883615951'
p1160
(lp1161
F1.5840605436899999
asS'14970812'
p1162
(lp1163
F-1.70332029588
asS'366843188'
p1164
(lp1165
F0.46993793356399999
asS'2372095194'
p1166
(lp1167
F-0.66731133279499999
asS'2470409048'
p1168
(lp1169
F-0.61140098526800002
asS'474447301'
p1170
(lp1171
F-0.782470899843
asS'2230671487'
p1172
(lp1173
F-0.44126455272999998
asS'212463932'
p1174
(lp1175
F0.39795807105499997
asS'141054864'
p1176
(lp1177
F-1.51355165676
asS'20416773'
p1178
(lp1179
F0.0519533845649
asS'3251123730'
p1180
(lp1181
F-0.70515932485800004
asS'251494353'
p1182
(lp1183
F-0.62138127250999997
asS'42479153'
p1184
(lp1185
F-0.70727082039400002
asS'313731146'
p1186
(lp1187
F0.135978755684
asS'178095617'
p1188
(lp1189
F-0.49302924604800002
asS'3000285002'
p1190
(lp1191
F-0.97103800819200004
asS'952682149'
p1192
(lp1193
F-0.14908442643200001
asS'233257967'
p1194
(lp1195
F-0.86932189622199996
asS'292586465'
p1196
(lp1197
F0.83017745677400001
asS'1639395961'
p1198
(lp1199
F-0.79683669705899995
asS'3300607612'
p1200
(lp1201
F0.24878655261099999
asS'574998716'
p1202
(lp1203
F-0.29092043581999999
asS'3038116383'
p1204
(lp1205
F-0.82537843135800004
asS'41581659'
p1206
(lp1207
F0.15731204458
asS'107229597'
p1208
(lp1209
F-0.215573863872
asS'255067647'
p1210
(lp1211
F-0.48510600481799998
asS'2565936404'
p1212
(lp1213
F1.8856872600500001
asS'832953192'
p1214
(lp1215
F0.60716495408100002
asS'107284130'
p1216
(lp1217
F-0.68636832691100003
asS'220837902'
p1218
(lp1219
F0.87931986735400003
asS'38104249'
p1220
(lp1221
F0.34171743966399998
asS'816316734'
p1222
(lp1223
F-1.43501336386
asS'19694480'
p1224
(lp1225
F1.35478332363
asS'43405249'
p1226
(lp1227
F0.108019928265
asS'60702622'
p1228
(lp1229
F0.56179009011400005
asS'2251286285'
p1230
(lp1231
F0.13173096240000001
asS'2387639999'
p1232
(lp1233
F-2.05247418149
asS'1349093048'
p1234
(lp1235
F2.7687363930500002
asS'28424279'
p1236
(lp1237
F0.66247064918099996
asS'849122588'
p1238
(lp1239
F-0.92601949638799996
asS'2727832941'
p1240
(lp1241
F-1.1162047345199999
asS'17338837'
p1242
(lp1243
F0.23732717118499999
asS'3169035458'
p1244
(lp1245
F-0.19459166252499999
asS'2951585327'
p1246
(lp1247
F-0.173633763276
asS'3307173220'
p1248
(lp1249
F-0.14781402684
asS'1004731904'
p1250
(lp1251
F-1.5388810583999999
asS'840421620'
p1252
(lp1253
F0.256416349702
asS'495413443'
p1254
(lp1255
F0.184649187666
asS'134971190'
p1256
(lp1257
F-0.661281802104
asS'329959864'
p1258
(lp1259
F0.27722566507599999
asS'2464554372'
p1260
(lp1261
F-0.19429838067999999
asS'56798817'
p1262
(lp1263
F0.38713181222800003
asS'263391759'
p1264
(lp1265
F-2.5828411544000001
asS'2595010674'
p1266
(lp1267
F0.95868851584299997
asS'148845013'
p1268
(lp1269
F0.053027859870199999
asS'28332149'
p1270
(lp1271
F-0.981535967201
asS'1683366356'
p1272
(lp1273
F0.559087283351
asS'2820596893'
p1274
(lp1275
F1.45855130688
asS'517239908'
p1276
(lp1277
F0.61208450138799997
asS'328457935'
p1278
(lp1279
F-1.1441753299499999
asS'588654221'
p1280
(lp1281
F0.21609009418399999
asS'3165612010'
p1282
(lp1283
F-1.3904667178200001
asS'2296750843'
p1284
(lp1285
F-4.46218842577
asS'423967218'
p1286
(lp1287
F0.14167144293100001
asS'22833654'
p1288
(lp1289
F0.59809970081300001
asS'2414706632'
p1290
(lp1291
F2.2183053082800002
asS'546258169'
p1292
(lp1293
F0.87909308581900003
asS'820137715'
p1294
(lp1295
F1.02194854408
asS'432048547'
p1296
(lp1297
F0.79741479246000002
asS'972496296'
p1298
(lp1299
F0.58552948985599995
asS'17044839'
p1300
(lp1301
F-0.49060167250199999
asS'494609110'
p1302
(lp1303
F-0.94055899717299996
asS'24239999'
p1304
(lp1305
F0.124514986373
asS'1027438579'
p1306
(lp1307
F-0.38677782589499998
asS'1375437380'
p1308
(lp1309
F-1.01002716104
asS'2149752998'
p1310
(lp1311
F-1.0583747884000001
asS'489063004'
p1312
(lp1313
F1.43884698358
asS'1630668877'
p1314
(lp1315
F-2.1257875410799998
asS'232788678'
p1316
(lp1317
F0.203651013849
asS'32673835'
p1318
(lp1319
F-0.52170231723899996
asS'144918041'
p1320
(lp1321
F-0.49746634183900001
asS'1552225574'
p1322
(lp1323
F-0.079726171743800006
asS'713365316'
p1324
(lp1325
F1.6306061252099999
asS'2739638030'
p1326
(lp1327
F1.44222509572
asS'117105018'
p1328
(lp1329
F1.1556539299199999
asS'3346463069'
p1330
(lp1331
F0.14341136045299999
asS'263977418'
p1332
(lp1333
F-0.099016956709100004
asS'3270387492'
p1334
(lp1335
F-0.93726852468300004
asS'77013143'
p1336
(lp1337
F2.1927555892499999
asS'1112609240'
p1338
(lp1339
F-2.1927423942900002
asS'2893372832'
p1340
(lp1341
F0.0313657170359
asS'52658734'
p1342
(lp1343
F-1.71657922174
asS'144570961'
p1344
(lp1345
F-0.278472691286
asS'341122817'
p1346
(lp1347
F-0.19676453477899999
asS'247108641'
p1348
(lp1349
F0.22067098473999999
asS'2970468605'
p1350
(lp1351
F-0.98101839964600002
asS'31188140'
p1352
(lp1353
F-0.24043773265099999
asS'426967017'
p1354
(lp1355
F0.67050283289900003
asS'1579845464'
p1356
(lp1357
F1.26513665387
asS'540849868'
p1358
(lp1359
F0.84940123267500001
asS'555690810'
p1360
(lp1361
F-0.94265833642800001
asS'493817448'
p1362
(lp1363
F1.1274183419599999
asS'380221841'
p1364
(lp1365
F-0.311805759407
asS'395484842'
p1366
(lp1367
F-1.68493812551
asS'1361824520'
p1368
(lp1369
F-0.43590926011999998
asS'1099655371'
p1370
(lp1371
F-1.2600664610700001
asS'405437713'
p1372
(lp1373
F-0.39878772022499998
asS'20077515'
p1374
(lp1375
F-0.26262492561599998
asS'229588028'
p1376
(lp1377
F-0.13005440231500001
asS'1283021432'
p1378
(lp1379
F-1.0238232146699999
asS'850543202'
p1380
(lp1381
F-1.66918774888
asS'274816731'
p1382
(lp1383
F0.33169482222800001
asS'2582800071'
p1384
(lp1385
F1.5259852791999999
asS'2602052260'
p1386
(lp1387
F0.96552395166000005
asS'14250106'
p1388
(lp1389
F0.077968580121200004
asS'250115148'
p1390
(lp1391
F1.01889655528
asS'1564167697'
p1392
(lp1393
F-1.21739493237
asS'467681653'
p1394
(lp1395
F-0.34796499181099999
asS'382151611'
p1396
(lp1397
F2.0486814832600002
asS'115090735'
p1398
(lp1399
F-1.31599616703
asS'2260439108'
p1400
(lp1401
F0.69440704556099997
asS'471472958'
p1402
(lp1403
F-2.13683796712
asS'299453646'
p1404
(lp1405
F2.7638118126300002
asS'2523704228'
p1406
(lp1407
F1.0270044167900001
asS'437726498'
p1408
(lp1409
F-0.32156094245900002
asS'2985359568'
p1410
(lp1411
F-0.69891796930100003
asS'15800697'
p1412
(lp1413
F0.041639318729099997
asS'1147734344'
p1414
(lp1415
F-0.13520796165099999
asS'1511351714'
p1416
(lp1417
F4.1120663115199996
asS'481610990'
p1418
(lp1419
F0.25604633316100001
asS'245580162'
p1420
(lp1421
F2.3311280722599999
asS'2160131833'
p1422
(lp1423
F-0.855979812876
asS'359301644'
p1424
(lp1425
F-0.091347580166299999
asS'33214161'
p1426
(lp1427
F-0.35442585130100002
asS'142137035'
p1428
(lp1429
F-1.1521480602800001
asS'1507070148'
p1430
(lp1431
F0.243282399421
asS'2201784097'
p1432
(lp1433
F0.70306199300500005
asS'17115086'
p1434
(lp1435
F2.8685485019499999
asS'47179510'
p1436
(lp1437
F1.3820842202600001
asS'3341741285'
p1438
(lp1439
F-3.86015767542
asS'2295460021'
p1440
(lp1441
F0.839835510708
asS'136901718'
p1442
(lp1443
F0.44004485862800002
asS'350490772'
p1444
(lp1445
F-0.4436427288
asS'246798976'
p1446
(lp1447
F0.99482912978299998
asS'30876286'
p1448
(lp1449
F-0.21626377979299999
asS'3018809280'
p1450
(lp1451
F-0.44368693188300001
asS'525714627'
p1452
(lp1453
F0.403383716487
asS'1592530752'
p1454
(lp1455
F0.62340334324000002
asS'2485098619'
p1456
(lp1457
F1.6697136717200001
asS'1037787463'
p1458
(lp1459
F-0.59480584859399999
asS'3243962811'
p1460
(lp1461
F-1.3512704968
asS'299764235'
p1462
(lp1463
F0.24470005312199999
asS'86212885'
p1464
(lp1465
F-0.40744421547499998
asS'540930006'
p1466
(lp1467
F-1.0766009186300001
asS'21324543'
p1468
(lp1469
F0.84203927864600003
asS'235321021'
p1470
(lp1471
F0.0129630888873
asS'258631265'
p1472
(lp1473
F-0.13793822317000001
asS'2991772466'
p1474
(lp1475
F0.23831826423800001
asS'2753473175'
p1476
(lp1477
F-0.46229265851599999
asS'264595508'
p1478
(lp1479
F0.69931996792700002
asS'2208412405'
p1480
(lp1481
F-1.12000504432
asS'253299193'
p1482
(lp1483
F0.25573076070200002
asS'2811455407'
p1484
(lp1485
F-0.53276278348899997
asS'3220984207'
p1486
(lp1487
F0.53979224846700002
asS'311595658'
p1488
(lp1489
F1.83709520242
asS'1014842906'
p1490
(lp1491
F-0.81087150677099995
asS'25221671'
p1492
(lp1493
F-0.64594144476500004
asS'2931714486'
p1494
(lp1495
F0.614226931689
asS'388579974'
p1496
(lp1497
F7.5318145255899998
asS'75845845'
p1498
(lp1499
F2.5924081086999999
asS'556261687'
p1500
(lp1501
F-2.0646720010399999
asS'3169087759'
p1502
(lp1503
F1.38519632347
asS'1708964144'
p1504
(lp1505
F2.9559632480600002
asS'2380284987'
p1506
(lp1507
F1.05076661362
asS'1318840760'
p1508
(lp1509
F0.69123387859399998
asS'124088515'
p1510
(lp1511
F-1.5112407865399999
asS'29888040'
p1512
(lp1513
F-0.060435224880599998
asS'14839662'
p1514
(lp1515
F-0.47263166166600001
asS'270763468'
p1516
(lp1517
F0.34309127983600002
asS'875902951'
p1518
(lp1519
F0.74284540082899997
asS'3071440342'
p1520
(lp1521
F-0.36696457549900002
asS'559530797'
p1522
(lp1523
F-0.39452964425699999
asS'23195603'
p1524
(lp1525
F0.093165798236000005
asS'472722481'
p1526
(lp1527
F-0.89092347135500005
asS'484808445'
p1528
(lp1529
F-0.78369477005099997
asS'846466327'
p1530
(lp1531
F1.3193805164000001
asS'154183934'
p1532
(lp1533
F0.82897161123700003
asS'122567822'
p1534
(lp1535
F-0.122495085943
asS'2811481382'
p1536
(lp1537
F0.94354221073099998
asS'119182046'
p1538
(lp1539
F-0.61404296771300004
asS'305134790'
p1540
(lp1541
F0.81396574646999997
asS'37990581'
p1542
(lp1543
F-0.26927004531799997
asS'280073623'
p1544
(lp1545
F1.6533222703399999
asS'864558457'
p1546
(lp1547
F-0.13067956346599999
asS'609444482'
p1548
(lp1549
F-0.15499885773899999
asS'137140274'
p1550
(lp1551
F1.8459953462600001
asS'2764391073'
p1552
(lp1553
F-0.624262862222
asS'38459796'
p1554
(lp1555
F-1.2538258737700001
asS'210320751'
p1556
(lp1557
F-0.079759118357000003
asS'429341725'
p1558
(lp1559
F1.97443894517
asS'2410786244'
p1560
(lp1561
F1.3994693337499999
asS'890240018'
p1562
(lp1563
F-0.46420131826099997
asS'21691269'
p1564
(lp1565
F-0.078917464971899998
asS'252599372'
p1566
(lp1567
F-1.0052166521799999
asS'724658586'
p1568
(lp1569
F-0.61290384092100003
asS'3153527292'
p1570
(lp1571
F-0.41401212022400002
asS'607325551'
p1572
(lp1573
F0.75932119138300003
asS'951010796'
p1574
(lp1575
F1.8399434051000001
asS'3000162348'
p1576
(lp1577
F2.7402243770500001
asS'1340063743'
p1578
(lp1579
F0.57658820637700003
asS'49797407'
p1580
(lp1581
F0.25342483367800001
asS'3164117968'
p1582
(lp1583
F3.0102656968499999
asS'2340798020'
p1584
(lp1585
F-0.038183459932699997
asS'3253109460'
p1586
(lp1587
F0.034677703390600001
asS'19987328'
p1588
(lp1589
F0.84779519750499999
asS'48263154'
p1590
(lp1591
F1.59597746447
asS'129235890'
p1592
(lp1593
F-0.239111187945
asS'158111087'
p1594
(lp1595
F2.9025489417800001
asS'308212534'
p1596
(lp1597
F-0.89926347201500001
asS'884893716'
p1598
(lp1599
F-0.95869625894300003
asS'2173032090'
p1600
(lp1601
F-1.27645275729
asS'212319151'
p1602
(lp1603
F1.09587140478
asS'2543708726'
p1604
(lp1605
F1.86294248733
asS'900604650'
p1606
(lp1607
F-0.21475954370700001
asS'2615319734'
p1608
(lp1609
F0.124590411772
asS'3187116042'
p1610
(lp1611
F1.1629035755799999
asS'194619305'
p1612
(lp1613
F0.75928564182799996
asS'1275150516'
p1614
(lp1615
F0.72088569398199998
asS'3070481688'
p1616
(lp1617
F1.66049693719
asS'431773157'
p1618
(lp1619
F-0.30703335849899999
asS'20776147'
p1620
(lp1621
F-1.06202283743
asS'30042350'
p1622
(lp1623
F-0.14459974091399999
asS'2354308160'
p1624
(lp1625
F0.35468906327600003
asS'2725694319'
p1626
(lp1627
F-0.0487598922999
asS'1968144578'
p1628
(lp1629
F-0.095346552959000005
asS'3201486555'
p1630
(lp1631
F-2.2618639138900001
asS'2851340937'
p1632
(lp1633
F-1.3517985478900001
asS'549863131'
p1634
(lp1635
F-0.43175993100900001
asS'245909009'
p1636
(lp1637
F0.47908444536799999
asS'520344647'
p1638
(lp1639
F0.0613186588918
asS'1290203400'
p1640
(lp1641
F0.93836653569799999
asS'175499065'
p1642
(lp1643
F-0.364730864835
asS'37766774'
p1644
(lp1645
F-0.47589883822899998
asS'2563726591'
p1646
(lp1647
F-0.158374129665
asS'162967620'
p1648
(lp1649
F0.073237331231
asS'3062055361'
p1650
(lp1651
F0.60902191857300003
asS'495199212'
p1652
(lp1653
F2.33151413092
asS'1710743832'
p1654
(lp1655
F-0.61005974640399996
asS'79894834'
p1656
(lp1657
F1.8468083656200001
asS'46623658'
p1658
(lp1659
F1.07345140636
asS'361375950'
p1660
(lp1661
F-1.2550894499
asS'1328073102'
p1662
(lp1663
F0.0030998907464700001
asS'2578857973'
p1664
(lp1665
F-1.3601204118100001
asS'415304375'
p1666
(lp1667
F-1.0622722329500001
asS'3326271358'
p1668
(lp1669
F0.78003724795399998
asS'20587072'
p1670
(lp1671
F2.76758199486
asS'991346778'
p1672
(lp1673
F0.92610151804600005
asS'344865397'
p1674
(lp1675
F1.5152888091900001
asS'2176958272'
p1676
(lp1677
F-1.1962077013500001
asS'3133025402'
p1678
(lp1679
F-0.32208310384700001
asS'296902102'
p1680
(lp1681
F-1.2926392017399999
asS'124735878'
p1682
(lp1683
F-0.72193709931700001
asS'918502830'
p1684
(lp1685
F-1.2605116699100001
asS'3196531030'
p1686
(lp1687
F1.5387058766299999
asS'198494857'
p1688
(lp1689
F0.49172036289299997
asS'1650278431'
p1690
(lp1691
F1.29361582179
asS'370540029'
p1692
(lp1693
F0.66031520381200004
asS'16989970'
p1694
(lp1695
F-1.0513987167500001
asS'68126410'
p1696
(lp1697
F-1.8079558067099999
asS'3015981726'
p1698
(lp1699
F1.2625493733499999
asS'487112770'
p1700
(lp1701
F0.18712427562100001
asS'194663746'
p1702
(lp1703
F1.6164421416999999
asS'3182576161'
p1704
(lp1705
F-0.352358863194
asS'70247351'
p1706
(lp1707
F-0.095324446681699995
asS'463054608'
p1708
(lp1709
F-1.90054845245
asS'3354224537'
p1710
(lp1711
F2.0864486744600002
asS'2418259723'
p1712
(lp1713
F-0.588204002462
asS'15907183'
p1714
(lp1715
F-0.34946006642100003
asS'870988388'
p1716
(lp1717
F1.7794280586
asS'384341065'
p1718
(lp1719
F-1.42072196971
asS'1470608390'
p1720
(lp1721
F-0.64441320820600001
asS'33760345'
p1722
(lp1723
F0.181634991276
asS'3248100462'
p1724
(lp1725
F0.41758452251
asS'90359845'
p1726
(lp1727
F0.29640561727600001
asS'2714514184'
p1728
(lp1729
F3.3227564000499998
asS'413729388'
p1730
(lp1731
F3.7052779283200001
asS'137455850'
p1732
(lp1733
F-1.3049803745299999
asS'44099200'
p1734
(lp1735
F0.38617300990600001
asS'3103717477'
p1736
(lp1737
F0.066444316769800005
asS'27198742'
p1738
(lp1739
F0.201551532092
asS'311654967'
p1740
(lp1741
F-2.9076717083000001
asS'16180559'
p1742
(lp1743
F0.94032868046499996
asS'146712559'
p1744
(lp1745
F-0.53022428052500004
asS'2412448794'
p1746
(lp1747
F-0.63991304072800004
asS'3056142064'
p1748
(lp1749
F1.21009686642
asS'27304198'
p1750
(lp1751
F2.2438498679599999
asS'303665229'
p1752
(lp1753
F-0.82521840998100005
asS'167282831'
p1754
(lp1755
F-0.79930426057699999
asS'18205761'
p1756
(lp1757
F1.0053023404999999
asS'2744430555'
p1758
(lp1759
F-1.2722012083900001
asS'913515602'
p1760
(lp1761
F0.66265683718599999
asS'69237755'
p1762
(lp1763
F0.093978343293300001
asS'550423777'
p1764
(lp1765
F0.066622818393800007
asS'2264363900'
p1766
(lp1767
F0.54371301054400001
asS'1166006527'
p1768
(lp1769
F0.29222459719900001
asS'1043713747'
p1770
(lp1771
F-1.5028287223400001
asS'1871604686'
p1772
(lp1773
F-0.83462783108399996
asS'572784902'
p1774
(lp1775
F2.9939702823999998
asS'3000884566'
p1776
(lp1777
F2.17757643844
asS'711796142'
p1778
(lp1779
F2.30184989856
asS'2903194852'
p1780
(lp1781
F-2.1794665766899999
asS'121656624'
p1782
(lp1783
F0.85781183104400005
asS'802261897'
p1784
(lp1785
F0.76702088512400002
asS'1169337758'
p1786
(lp1787
F-2.03159317189
asS'3260191711'
p1788
(lp1789
F0.88521519331999998
asS'462114432'
p1790
(lp1791
F0.21994426427800001
asS'205314540'
p1792
(lp1793
F-1.21446496902
asS'56408045'
p1794
(lp1795
F1.10364759807
asS'1675067046'
p1796
(lp1797
F-0.30966940908899998
asS'173789958'
p1798
(lp1799
F-1.5787222518199999
asS'2323947968'
p1800
(lp1801
F-0.96611503987400005
asS'524866673'
p1802
(lp1803
F1.9495490152999999
asS'17283062'
p1804
(lp1805
F-1.3483002124300001
asS'2388403569'
p1806
(lp1807
F-1.3689564532
asS'483085183'
p1808
(lp1809
F0.36357854789299998
asS'45302861'
p1810
(lp1811
F-0.763147253882
asS'501234848'
p1812
(lp1813
F2.6176193630800002
asS'2772622527'
p1814
(lp1815
F-0.98074428942699998
asS'3027683998'
p1816
(lp1817
F0.424407593684
asS'183753455'
p1818
(lp1819
F-1.88699812128
asS'81127761'
p1820
(lp1821
F-1.1477708987699999
asS'2316983790'
p1822
(lp1823
F0.27185472543400002
asS'848084893'
p1824
(lp1825
F1.6250729457599999
asS'348509295'
p1826
(lp1827
F0.51184620137199999
asS'1914506792'
p1828
(lp1829
F0.13512679943
asS'131530690'
p1830
(lp1831
F0.54604144766399998
asS'2284850010'
p1832
(lp1833
F-0.138892606975
asS'484514913'
p1834
(lp1835
F-0.036867634778000001
asS'429523010'
p1836
(lp1837
F-0.0138316314124
asS'107168854'
p1838
(lp1839
F0.35571699217300001
asS'158033670'
p1840
(lp1841
F0.58074073087099998
asS'423670056'
p1842
(lp1843
F-1.4188258222900001
asS'127374813'
p1844
(lp1845
F2.0010921390899998
asS'245308991'
p1846
(lp1847
F-0.21520985645499999
asS'290570868'
p1848
(lp1849
F-0.40016758216300002
asS'52702957'
p1850
(lp1851
F0.16363553832
asS'2650787508'
p1852
(lp1853
F-1.3973087424299999
asS'1129762164'
p1854
(lp1855
F-1.0982596788800001
asS'248522239'
p1856
(lp1857
F0.68695426359
asS'18086787'
p1858
(lp1859
F-1.0900876612199999
asS'3158661520'
p1860
(lp1861
F-1.1669750679999999
asS'93891664'
p1862
(lp1863
F2.0752051947300001
asS'269618359'
p1864
(lp1865
F-0.33745581652399997
asS'2262555338'
p1866
(lp1867
F1.2202885913199999
asS'14664785'
p1868
(lp1869
F0.90368442888
asS'238717022'
p1870
(lp1871
F2.2544834326299998
asS'17362917'
p1872
(lp1873
F-1.206225179
asS'104048643'
p1874
(lp1875
F-2.0251108390099999
asS'56811428'
p1876
(lp1877
F1.26645186192
asS'2353473133'
p1878
(lp1879
F-0.43727324067000001
asS'554641119'
p1880
(lp1881
F-0.0098673594878599998
asS'176187991'
p1882
(lp1883
F0.74159576570700003
asS'17237178'
p1884
(lp1885
F0.4584741182
asS'1167357150'
p1886
(lp1887
F1.4404512505
asS'610795492'
p1888
(lp1889
F0.44780208064799998
asS'22730618'
p1890
(lp1891
F-0.67953402420499998
asS'614730516'
p1892
(lp1893
F3.5930227126299998
asS'23265506'
p1894
(lp1895
F-0.81045601434600001
asS'3148618465'
p1896
(lp1897
F-1.98760909754
asS'538785862'
p1898
(lp1899
F0.30656720625799999
asS'305506218'
p1900
(lp1901
F0.63198491047200001
asS'3361503233'
p1902
(lp1903
F0.89492781897399998
asS'718982780'
p1904
(lp1905
F1.8037233453599999
asS'38723680'
p1906
(lp1907
F-0.786210610659
asS'120234291'
p1908
(lp1909
F-0.46828634652000001
asS'72183405'
p1910
(lp1911
F-0.93768712471899995
asS'3231010562'
p1912
(lp1913
F1.9505912006399999
asS'3026078916'
p1914
(lp1915
F-0.0427456162635
asS'2206484977'
p1916
(lp1917
F-1.93391702254
asS'3352627101'
p1918
(lp1919
F-1.1092799984999999
asS'249782044'
p1920
(lp1921
F0.70508973913200002
asS'456636692'
p1922
(lp1923
F-0.964758689153
asS'435464834'
p1924
(lp1925
F0.35501216913400002
asS'2868906035'
p1926
(lp1927
F0.21723740252000001
asS'728959290'
p1928
(lp1929
F-0.28150714006799998
asS'263748985'
p1930
(lp1931
F0.231761549836
asS'987715628'
p1932
(lp1933
F0.245261089781
asS'1703926747'
p1934
(lp1935
F-1.6434049478899999
asS'44245603'
p1936
(lp1937
F1.98187242601
asS'2363509219'
p1938
(lp1939
F1.37750559342
asS'2333881903'
p1940
(lp1941
F2.4630826881000001
asS'2192174179'
p1942
(lp1943
F-0.90044476700599996
asS'3018332599'
p1944
(lp1945
F-1.11724732358
asS'22720990'
p1946
(lp1947
F-0.96992247045699997
asS'157373298'
p1948
(lp1949
F-1.5491939642899999
asS'294991606'
p1950
(lp1951
F-0.20296466602800001
asS'105030888'
p1952
(lp1953
F-0.073913465424799998
asS'292671486'
p1954
(lp1955
F0.62524427248299996
asS'2269197391'
p1956
(lp1957
F0.86949169265600001
asS'135586989'
p1958
(lp1959
F-1.4293081267900001
asS'171561479'
p1960
(lp1961
F-0.70223939533500002
asS'106211842'
p1962
(lp1963
F0.28236291857200002
asS'446526466'
p1964
(lp1965
F0.59358027544799996
asS'1399721636'
p1966
(lp1967
F0.75040616205900001
asS'454330756'
p1968
(lp1969
F-1.1386355271099999
asS'921437132'
p1970
(lp1971
F0.55946656133700001
asS'52779975'
p1972
(lp1973
F0.43096120083099998
asS'2756873076'
p1974
(lp1975
F0.73204177161700001
asS'20852423'
p1976
(lp1977
F1.93055094511
asS'1676065513'
p1978
(lp1979
F2.7928500485200001
asS'2916949294'
p1980
(lp1981
F-2.9278446204700002
asS'954497179'
p1982
(lp1983
F-0.232009385332
asS'373505326'
p1984
(lp1985
F0.124253424751
asS'558969189'
p1986
(lp1987
F-1.9348699523899999
asS'16607017'
p1988
(lp1989
F2.3695590144700001
asS'112628901'
p1990
(lp1991
F0.60568509372599999
asS'151284118'
p1992
(lp1993
F1.74591121793
asS'171548178'
p1994
(lp1995
F1.81418013504
asS'144317147'
p1996
(lp1997
F-0.70338540861499999
asS'312964626'
p1998
(lp1999
F1.1646865657400001
asS'2584178036'
p2000
(lp2001
F-0.12275307182799999
asS'477889371'
p2002
(lp2003
F0.40840646391899998
asS'18258975'
p2004
(lp2005
F0.0341853179755
asS'236728688'
p2006
(lp2007
F3.3771687195100002
asS'3187453725'
p2008
(lp2009
F0.202357961148
asS'16007872'
p2010
(lp2011
F-1.8727030543100001
asS'547260331'
p2012
(lp2013
F-1.5697848323200001
asS'28339731'
p2014
(lp2015
F-0.121641002796
asS'423022414'
p2016
(lp2017
F0.43609429160399998
asS'1891556472'
p2018
(lp2019
F-1.07545993247
asS'134228450'
p2020
(lp2021
F0.16352538448699999
asS'530872862'
p2022
(lp2023
F-0.80879730059800004
asS'15726358'
p2024
(lp2025
F-0.41212712960699999
asS'17437437'
p2026
(lp2027
F-1.6070870829899999
asS'944224682'
p2028
(lp2029
F1.06790706189
asS'2972588327'
p2030
(lp2031
F-1.9042634998800001
asS'1683575401'
p2032
(lp2033
F-0.32004552355499999
asS'296285008'
p2034
(lp2035
F0.26219131988099997
asS'88861467'
p2036
(lp2037
F0.140515280193
asS'3033001737'
p2038
(lp2039
F-1.6886927249599999
asS'22258499'
p2040
(lp2041
F-1.4155196077700001
asS'474533802'
p2042
(lp2043
F-0.45574373984200001
asS'80473558'
p2044
(lp2045
F0.63725361944199999
asS'1346952402'
p2046
(lp2047
F-0.44536093360500001
asS'27532984'
p2048
(lp2049
F0.31246540702100001
asS'2969884610'
p2050
(lp2051
F-1.64294850863
asS'1831031478'
p2052
(lp2053
F-3.6416728256700002
asS'1332005876'
p2054
(lp2055
F0.821894891397
asS'480492819'
p2056
(lp2057
F-0.18056181224599999
asS'315878798'
p2058
(lp2059
F0.0059121166099799999
asS'147290864'
p2060
(lp2061
F-3.3360247476799998
asS'24192269'
p2062
(lp2063
F0.37583869260699998
asS'16349648'
p2064
(lp2065
F-0.81267324974400001
asS'299776432'
p2066
(lp2067
F-0.150016799886
asS'632470518'
p2068
(lp2069
F0.18252367050900001
asS'2886253346'
p2070
(lp2071
F-2.0556883392900001
asS'375549185'
p2072
(lp2073
F-1.48261221114
asS'984614636'
p2074
(lp2075
F-1.6323248966999999
asS'2474024125'
p2076
(lp2077
F-0.39815535073699998
asS'319931473'
p2078
(lp2079
F-0.91731310057600002
asS'2686561322'
p2080
(lp2081
F-0.032909379117899998
asS'899135509'
p2082
(lp2083
F0.55151592486900003
asS'3025897219'
p2084
(lp2085
F-0.95517314847900003
asS'3225095235'
p2086
(lp2087
F-0.10835507251
asS'299201978'
p2088
(lp2089
F-0.41225887107600001
asS'2707065429'
p2090
(lp2091
F-0.31682129284600002
asS'802890950'
p2092
(lp2093
F-0.311557689837
asS'54682894'
p2094
(lp2095
F2.8458109949799999
asS'3343771132'
p2096
(lp2097
F-1.9359532902300001
asS'2346722716'
p2098
(lp2099
F-0.32543086600400001
asS'25744258'
p2100
(lp2101
F0.167740854143
asS'275648732'
p2102
(lp2103
F0.52103748074599998
asS'56396769'
p2104
(lp2105
F-0.185886109419
asS'839241362'
p2106
(lp2107
F1.02719447029
asS'109071016'
p2108
(lp2109
F0.019102869836399999
asS'15278752'
p2110
(lp2111
F0.37737440096500002
asS'3330251014'
p2112
(lp2113
F1.20643641745
asS'1382696899'
p2114
(lp2115
F-0.22061428142299999
asS'2279617531'
p2116
(lp2117
F0.65697289789000002
asS'891606402'
p2118
(lp2119
F-0.99118123026799998
asS'17732518'
p2120
(lp2121
F-1.68418162834
asS'1534688612'
p2122
(lp2123
F1.6380901505500001
asS'20756583'
p2124
(lp2125
F0.21684541895199999
asS'178102854'
p2126
(lp2127
F0.357845888961
asS'126826923'
p2128
(lp2129
F-0.29279265800499998
asS'2367526415'
p2130
(lp2131
F-1.71323929062
asS'253356099'
p2132
(lp2133
F0.26433645865099997
asS'461931762'
p2134
(lp2135
F0.839025170933
asS'118915743'
p2136
(lp2137
F-1.1285356801299999
asS'116233290'
p2138
(lp2139
F0.12897488510300001
asS'887193084'
p2140
(lp2141
F1.1878043815299999
asS'3099491228'
p2142
(lp2143
F-1.2942609227199999
asS'2375662682'
p2144
(lp2145
F-0.128204164663
asS'2675442426'
p2146
(lp2147
F0.174502877005
asS'192014466'
p2148
(lp2149
F-1.68029945155
asS'15974515'
p2150
(lp2151
F1.61743465954
asS'26254697'
p2152
(lp2153
F-0.083102021521700001
asS'25409581'
p2154
(lp2155
F-3.02059888935
asS'273683682'
p2156
(lp2157
F-0.36501213745400002
asS'17674757'
p2158
(lp2159
F2.3904036123200001
asS'2332587188'
p2160
(lp2161
F-3.4718135493900002
asS'774926515'
p2162
(lp2163
F0.50116190710300001
asS'140480683'
p2164
(lp2165
F1.9229908381900001
asS'3304420079'
p2166
(lp2167
F3.6545037909600002
asS'65210574'
p2168
(lp2169
F-0.82362870849799996
asS'762534008'
p2170
(lp2171
F1.5241090284700001
asS'80904174'
p2172
(lp2173
F0.13699316726399999
asS'3163628732'
p2174
(lp2175
F0.571477267713
asS'3323578618'
p2176
(lp2177
F-1.94900243266
asS'1552520972'
p2178
(lp2179
F-0.037398170245099997
asS'3364105379'
p2180
(lp2181
F0.16856076588400001
asS'436894497'
p2182
(lp2183
F0.75526409032800002
asS'1496545255'
p2184
(lp2185
F0.44700494431999999
asS'1299258126'
p2186
(lp2187
F-0.100486890819
asS'1286987072'
p2188
(lp2189
F0.84459335106300004
asS'21410672'
p2190
(lp2191
F0.33799912894799999
asS'3306173819'
p2192
(lp2193
F0.30766474117499998
asS'68599588'
p2194
(lp2195
F-0.36150675202499999
asS'1366273350'
p2196
(lp2197
F-1.3384952318600001
asS'2989219299'
p2198
(lp2199
F-0.86164276660700001
asS'31631820'
p2200
(lp2201
F-1.8153224083699999
asS'3232681596'
p2202
(lp2203
F-2.28553809888
asS'2518201555'
p2204
(lp2205
F1.71753848307
asS'636611445'
p2206
(lp2207
F0.51755204968900004
asS'481713367'
p2208
(lp2209
F-0.099847318003700003
asS'3294749086'
p2210
(lp2211
F-1.0800808448799999
asS'2429053827'
p2212
(lp2213
F-0.35296849855000001
asS'794401550'
p2214
(lp2215
F0.76996160462600005
asS'2973253416'
p2216
(lp2217
F0.17370335179599999
asS'1952528058'
p2218
(lp2219
F-1.0160242259000001
asS'2764409537'
p2220
(lp2221
F-1.9319732483400001
asS'37762125'
p2222
(lp2223
F1.14809086652
asS'348812932'
p2224
(lp2225
F-0.076439662658700003
asS'937484864'
p2226
(lp2227
F-1.1574234047500001
asS'27593757'
p2228
(lp2229
F0.36626944954899998
asS'704219604'
p2230
(lp2231
F0.52285717111600005
asS'17067404'
p2232
(lp2233
F-1.1109494505099999
asS'84706649'
p2234
(lp2235
F-2.0156204187300002
asS'319991608'
p2236
(lp2237
F-0.050379307456
asS'229290803'
p2238
(lp2239
F-0.82781202474000004
asS'25963806'
p2240
(lp2241
F-0.79840788064299995
asS'3060293566'
p2242
(lp2243
F1.03004211067
asS'3266810329'
p2244
(lp2245
F-0.00086873580884200003
asS'32419017'
p2246
(lp2247
F1.0644105000899999
asS'282828453'
p2248
(lp2249
F1.01643213439
asS'27203795'
p2250
(lp2251
F-0.19042039062900001
asS'14959367'
p2252
(lp2253
F0.22703398366700001
asS'28134331'
p2254
(lp2255
F-0.59643639888400002
asS'39314178'
p2256
(lp2257
F-0.189491699406
asS'3075776587'
p2258
(lp2259
F0.54025401752000002
asS'2173775016'
p2260
(lp2261
F-0.423250557719
asS'1255179128'
p2262
(lp2263
F-0.090039197212500005
asS'1072596854'
p2264
(lp2265
F-0.59416569372000005
asS'969566850'
p2266
(lp2267
F-0.105681463578
asS'12626962'
p2268
(lp2269
F-0.119972141187
asS'415151129'
p2270
(lp2271
F-0.55434123233999999
asS'15995683'
p2272
(lp2273
F-0.73298310204700001
asS'2378184751'
p2274
(lp2275
F-1.33177354921
asS'2985987137'
p2276
(lp2277
F0.446876495263
asS'1489114434'
p2278
(lp2279
F-1.9359071214500001
asS'949555026'
p2280
(lp2281
F2.47603295029
asS'2990094652'
p2282
(lp2283
F-0.89035130601800005
asS'34399693'
p2284
(lp2285
F1.56952244938
asS'363214023'
p2286
(lp2287
F-1.1858548849699999
asS'519728191'
p2288
(lp2289
F-1.4390078519
asS'76009410'
p2290
(lp2291
F-1.4191311801599999
asS'240844856'
p2292
(lp2293
F-0.76294529262199995
asS'588097287'
p2294
(lp2295
F-0.63258416361500003
asS'822476942'
p2296
(lp2297
F-0.612179137027
asS'621996473'
p2298
(lp2299
F-0.46107234971299998
asS'2759766645'
p2300
(lp2301
F2.7612140003699999
asS'886400342'
p2302
(lp2303
F0.143325858872
asS'3220693453'
p2304
(lp2305
F1.9452143234099999
asS'185364448'
p2306
(lp2307
F0.44001972367199998
asS'580164192'
p2308
(lp2309
F-0.55955639823799996
asS'2151699396'
p2310
(lp2311
F-0.14373370828699999
asS'400276391'
p2312
(lp2313
F-0.88292843355100004
asS'383990793'
p2314
(lp2315
F0.32008000331300002
asS'18277208'
p2316
(lp2317
F0.146477768077
asS'53905837'
p2318
(lp2319
F0.70481959555700002
asS'104466132'
p2320
(lp2321
F0.012473395253400001
asS'2987684469'
p2322
(lp2323
F-0.55242513490800005
asS'311521075'
p2324
(lp2325
F-2.07534706688
asS'111631919'
p2326
(lp2327
F-0.46889387559399998
asS'2715213326'
p2328
(lp2329
F-0.20405280769699999
asS'2364629671'
p2330
(lp2331
F-0.061729143828499998
asS'478242108'
p2332
(lp2333
F-0.26698190096800001
asS'52728606'
p2334
(lp2335
F0.146479297536
asS'2319773719'
p2336
(lp2337
F1.6155608046000001
asS'154405568'
p2338
(lp2339
F-1.42064260462
asS'22686311'
p2340
(lp2341
F0.59295644474700004
asS'119247289'
p2342
(lp2343
F0.82855512180900004
asS'332003842'
p2344
(lp2345
F-1.32081388766
asS'356026306'
p2346
(lp2347
F-0.23667299945199999
asS'22108814'
p2348
(lp2349
F1.01223650571
asS'1239062041'
p2350
(lp2351
F1.06060552845
asS'422764873'
p2352
(lp2353
F-1.03499677265
asS'803085008'
p2354
(lp2355
F-0.63614908945299997
asS'17934423'
p2356
(lp2357
F0.47407053389199999
asS'853150752'
p2358
(lp2359
F1.3579072935300001
asS'569175899'
p2360
(lp2361
F1.5108510476100001
asS'173725035'
p2362
(lp2363
F0.231973560632
asS'1475383028'
p2364
(lp2365
F-0.22351678470700001
asS'3271904619'
p2366
(lp2367
F-1.03814264588
asS'3022435081'
p2368
(lp2369
F2.07148686212
asS'1191210901'
p2370
(lp2371
F-0.58598920403800003
asS'2922002179'
p2372
(lp2373
F-0.36025690010400002
asS'45661957'
p2374
(lp2375
F0.12181761862399999
asS'1161032318'
p2376
(lp2377
F1.97852198797
asS'448888098'
p2378
(lp2379
F-0.62211819215999997
asS'2583797636'
p2380
(lp2381
F-0.56869664665399999
asS'239281295'
p2382
(lp2383
F-0.96781310826099998
asS'20270883'
p2384
(lp2385
F-0.798769186282
asS'56906548'
p2386
(lp2387
F0.30842135715899999
asS'115729308'
p2388
(lp2389
F-1.44740876711
asS'203351820'
p2390
(lp2391
F-1.41775583043
asS'487933376'
p2392
(lp2393
F3.712531298
asS'3315650567'
p2394
(lp2395
F1.68320506058
asS'1682038578'
p2396
(lp2397
F1.18346844606
asS'3007482001'
p2398
(lp2399
F-0.43554782692600003
asS'2519552569'
p2400
(lp2401
F-1.3941645971700001
asS'1577662128'
p2402
(lp2403
F0.171993882766
asS'125896734'
p2404
(lp2405
F0.036694005066399998
asS'103774220'
p2406
(lp2407
F2.6996796912300001
asS'3022193149'
p2408
(lp2409
F-0.932455552144
asS'82915010'
p2410
(lp2411
F-0.44804304094399999
asS'976530702'
p2412
(lp2413
F1.7216227713200001
asS'74513551'
p2414
(lp2415
F-1.77757395236
asS'1099214587'
p2416
(lp2417
F0.430842826427
asS'58539856'
p2418
(lp2419
F-1.6328774351599999
asS'31489591'
p2420
(lp2421
F1.06031309531
asS'2366465875'
p2422
(lp2423
F0.15873872565800001
asS'2841993261'
p2424
(lp2425
F-0.351332298509
asS'426625018'
p2426
(lp2427
F0.32718786753099999
asS'3004439539'
p2428
(lp2429
F-1.5905030924600001
asS'3346766793'
p2430
(lp2431
F1.69045930974
asS'27598939'
p2432
(lp2433
F-0.129243664339
asS'19518422'
p2434
(lp2435
F-0.91716853534999998
asS'253860949'
p2436
(lp2437
F1.04361149595
asS'3184650450'
p2438
(lp2439
F-0.095574088673000004
asS'1428039019'
p2440
(lp2441
F-0.58612429217200002
asS'384316868'
p2442
(lp2443
F-1.90113622645
asS'564060759'
p2444
(lp2445
F2.9937026959500002
asS'3237187123'
p2446
(lp2447
F0.54044443353299998
asS'3354382294'
p2448
(lp2449
F2.2302329541799999
asS'38057219'
p2450
(lp2451
F-0.93957285233900001
asS'20912252'
p2452
(lp2453
F1.54346240714
asS'391430036'
p2454
(lp2455
F-0.0054916122921600001
asS'420013806'
p2456
(lp2457
F0.86018358839499998
asS'3253285213'
p2458
(lp2459
F-0.48830922330600002
asS'1168614020'
p2460
(lp2461
F1.5030334974699999
asS'184939350'
p2462
(lp2463
F1.23623946841
asS'535681746'
p2464
(lp2465
F-0.025433737138400001
asS'595997188'
p2466
(lp2467
F0.320610798734
asS'1550522623'
p2468
(lp2469
F-1.0996583047499999
asS'409379431'
p2470
(lp2471
F-0.38879842389500002
asS'34997182'
p2472
(lp2473
F-0.81093167965000001
asS'3069601323'
p2474
(lp2475
F-1.2179557111099999
asS'1283500518'
p2476
(lp2477
F-0.117791698774
asS'364691947'
p2478
(lp2479
F1.2339298732499999
asS'3105073274'
p2480
(lp2481
F0.12547279823599999
asS'33051120'
p2482
(lp2483
F0.27668417269700002
asS'72454254'
p2484
(lp2485
F-0.30579899952299999
asS'841704092'
p2486
(lp2487
F-0.59793578149399995
asS'2586164682'
p2488
(lp2489
F1.0522698297799999
asS'952847162'
p2490
(lp2491
F-0.33305416824400003
asS'2746845258'
p2492
(lp2493
F-1.41023988279
asS'2250493751'
p2494
(lp2495
F3.5699332619100002
asS'2771919401'
p2496
(lp2497
F1.01600079634
asS'2735705952'
p2498
(lp2499
F-0.465246031023
asS'3099776112'
p2500
(lp2501
F-1.1277310088200001
asS'146992589'
p2502
(lp2503
F1.6507135472200001
asS'2811624648'
p2504
(lp2505
F-0.055149798127499997
asS'300182014'
p2506
(lp2507
F-0.70019153486800001
asS'35627887'
p2508
(lp2509
F0.33469080281199998
asS'707140640'
p2510
(lp2511
F-0.52016571289799995
asS'951063234'
p2512
(lp2513
F0.056056421046799997
asS'25398845'
p2514
(lp2515
F-1.76880404812
asS'122974278'
p2516
(lp2517
F-0.15016348104999999
asS'142642716'
p2518
(lp2519
F-0.53218273601400001
asS'226479824'
p2520
(lp2521
F-1.57118744971
asS'1242410526'
p2522
(lp2523
F-0.57258701201499995
asS'931286316'
p2524
(lp2525
F-4.1759144887400002
asS'380274414'
p2526
(lp2527
F0.41196497689700001
asS'2971403851'
p2528
(lp2529
F-0.20074112253099999
asS'20688492'
p2530
(lp2531
F0.98604870853600002
asS'3345128776'
p2532
(lp2533
F-1.61313598747
asS'2161298598'
p2534
(lp2535
F1.2294117204799999
asS'2857178954'
p2536
(lp2537
F-2.0060316876000002
asS'2970486053'
p2538
(lp2539
F-0.98101839964600002
asS'28246428'
p2540
(lp2541
F-0.40817584845400001
asS'3076256505'
p2542
(lp2543
F1.1554809848500001
asS'20275358'
p2544
(lp2545
F1.3315684856300001
asS'603073691'
p2546
(lp2547
F-0.14516935474699999
asS'815977938'
p2548
(lp2549
F0.94252095889900001
asS'2685871154'
p2550
(lp2551
F0.13715786442
asS'2727546311'
p2552
(lp2553
F0.76507892761100005
asS'2564535115'
p2554
(lp2555
F0.091740841931500006
asS'805335157'
p2556
(lp2557
F-1.03262100815
asS'377775232'
p2558
(lp2559
F-0.0310861744022
asS'754060742'
p2560
(lp2561
F-1.0051538871700001
asS'329137978'
p2562
(lp2563
F-0.41296433003600003
asS'3087709502'
p2564
(lp2565
F-0.075524844046800002
asS'3158995731'
p2566
(lp2567
F-0.29614570108799998
asS'3243259442'
p2568
(lp2569
F1.54950042235
asS'3132637902'
p2570
(lp2571
F-0.187579883108
asS'3081503914'
p2572
(lp2573
F-0.72560772032400001
asS'444284249'
p2574
(lp2575
F0.61251418728100004
asS'231541352'
p2576
(lp2577
F0.52670267109400004
asS'2438840592'
p2578
(lp2579
F2.2688023918
asS'1737013177'
p2580
(lp2581
F-0.0122963197068
asS'17791954'
p2582
(lp2583
F-0.26223327456000001
asS'158163008'
p2584
(lp2585
F-1.44130201267
asS'2766766785'
p2586
(lp2587
F-0.27715679483599998
asS'12814702'
p2588
(lp2589
F-1.5236873770199999
asS'45861294'
p2590
(lp2591
F-0.29770991967799998
asS'3267764497'
p2592
(lp2593
F-0.82841318757600002
asS'1686369542'
p2594
(lp2595
F-0.29137930969999998
asS'574311668'
p2596
(lp2597
F0.220321119999
asS'924604970'
p2598
(lp2599
F-0.13649588207800001
asS'311740717'
p2600
(lp2601
F-0.44189621069099999
asS'865637048'
p2602
(lp2603
F-0.64077703140800002
asS'22972142'
p2604
(lp2605
F1.06572552592
asS'3266889440'
p2606
(lp2607
F-1.4191322147700001
asS'1110629412'
p2608
(lp2609
F0.18317318356500001
asS'3185053168'
p2610
(lp2611
F-1.42868950821
asS'3080919807'
p2612
(lp2613
F0.29986865877899999
asS'54938472'
p2614
(lp2615
F-0.398898210782
asS'1442872940'
p2616
(lp2617
F-1.0197455613799999
asS'416009248'
p2618
(lp2619
F-0.87834250324200003
asS'19955349'
p2620
(lp2621
F0.302814549825
asS'27320992'
p2622
(lp2623
F1.31517860175
asS'1657033226'
p2624
(lp2625
F1.9836148441200001
asS'7790622'
p2626
(lp2627
F-0.15113065598600001
asS'16485255'
p2628
(lp2629
F1.7603700759900001
asS'1288966135'
p2630
(lp2631
F-0.45112787194800003
asS'463916844'
p2632
(lp2633
F0.33545001562400001
asS'1275194059'
p2634
(lp2635
F0.84487906165799997
asS'260527870'
p2636
(lp2637
F0.412306506914
asS'84599864'
p2638
(lp2639
F-0.59950929173699996
asS'1296325968'
p2640
(lp2641
F-0.260329317005
asS'365286256'
p2642
(lp2643
F-0.71774333860200001
asS'445412046'
p2644
(lp2645
F1.3740868257700001
asS'29553855'
p2646
(lp2647
F2.0314726194200001
asS'220304072'
p2648
(lp2649
F2.56768968073
asS'140989303'
p2650
(lp2651
F-1.7227141943299999
asS'617853207'
p2652
(lp2653
F3.6579938577900002
asS'2658420401'
p2654
(lp2655
F-1.3178660578800001
asS'1119574238'
p2656
(lp2657
F0.44136401165599998
asS'3279650217'
p2658
(lp2659
F1.0869240146000001
asS'457997085'
p2660
(lp2661
F-1.9905176768299999
asS'617669968'
p2662
(lp2663
F-0.89071197063700003
asS'3000093281'
p2664
(lp2665
F-1.30052556498
asS'311856115'
p2666
(lp2667
F-0.97550920178400002
asS'174111162'
p2668
(lp2669
F0.381671329946
asS'179075185'
p2670
(lp2671
F-0.18166173307399999
asS'611937922'
p2672
(lp2673
F0.59270239604399999
asS'257114811'
p2674
(lp2675
F1.90876039178
asS'2858345604'
p2676
(lp2677
F-0.19537666465600001
asS'18204607'
p2678
(lp2679
F1.25689800487
asS'78776348'
p2680
(lp2681
F0.52569654368399998
asS'70944770'
p2682
(lp2683
F-1.5832698487100001
asS'1046114347'
p2684
(lp2685
F0.141518944231
asS'3254964078'
p2686
(lp2687
F2.1784304376899999
asS'69099998'
p2688
(lp2689
F2.5625220422999999
asS'3249398100'
p2690
(lp2691
F-1.4272419967600001
asS'417562267'
p2692
(lp2693
F1.19429986904
asS'816840528'
p2694
(lp2695
F-2.2773392370000001
asS'30421467'
p2696
(lp2697
F-0.084694019030799997
asS'39857486'
p2698
(lp2699
F-0.014297440977600001
asS'397511255'
p2700
(lp2701
F-0.29224363969299999
asS'569581021'
p2702
(lp2703
F1.1398966160099999
asS'295092700'
p2704
(lp2705
F0.502107710421
asS'3315006868'
p2706
(lp2707
F-0.45044548776799997
asS'248858868'
p2708
(lp2709
F-0.73686161299999997
asS'938073644'
p2710
(lp2711
F-0.54459181189899997
asS'822444836'
p2712
(lp2713
F1.0642067553100001
asS'14394248'
p2714
(lp2715
F0.57721538506000003
asS'2467279700'
p2716
(lp2717
F-0.38949708905000002
asS'56483993'
p2718
(lp2719
F-1.34248556473
asS'2945993432'
p2720
(lp2721
F0.64023230726900004
asS'234650609'
p2722
(lp2723
F1.1300532345800001
asS'2524274756'
p2724
(lp2725
F0.19346824911800001
asS'1952273347'
p2726
(lp2727
F-0.59105707604000002
asS'1629242024'
p2728
(lp2729
F2.35277265588
asS'24487817'
p2730
(lp2731
F-0.64631890486200005
asS'27371671'
p2732
(lp2733
F-0.28961482550599998
asS'28027698'
p2734
(lp2735
F-0.17306725434199999
asS'537551503'
p2736
(lp2737
F1.6145663190799999
asS'98495253'
p2738
(lp2739
F1.73874570887
asS'3122409107'
p2740
(lp2741
F2.80602046962
asS'1069761618'
p2742
(lp2743
F0.75725557781899999
asS'14133418'
p2744
(lp2745
F0.36503474654399998
asS'2455822425'
p2746
(lp2747
F-0.170449073162
asS'1528718839'
p2748
(lp2749
F1.63093090931
asS'3091521770'
p2750
(lp2751
F-0.40621837889599999
asS'2559582960'
p2752
(lp2753
F0.38557905168700002
asS'551176355'
p2754
(lp2755
F-0.49099631616599998
asS'187958175'
p2756
(lp2757
F-0.54739711710899996
asS'3095274289'
p2758
(lp2759
F-0.95204158874099998
asS'2594824381'
p2760
(lp2761
F-0.20995471936999999
asS'2979127809'
p2762
(lp2763
F-1.17312544824
asS'20165785'
p2764
(lp2765
F-0.64041942036800004
asS'2274042164'
p2766
(lp2767
F-0.015633903005400001
asS'167489997'
p2768
(lp2769
F0.081463904811800006
asS'16047377'
p2770
(lp2771
F-0.82931759662100002
asS'2282815632'
p2772
(lp2773
F-0.19909515846600001
asS'2997750360'
p2774
(lp2775
F0.070607675353299995
asS'2410623764'
p2776
(lp2777
F0.10452807673
asS'513787993'
p2778
(lp2779
F-0.464479505194
asS'2738526278'
p2780
(lp2781
F-0.53123032102199996
asS'462527860'
p2782
(lp2783
F0.62856351286699996
asS'712746949'
p2784
(lp2785
F-1.1628302771300001
asS'430851439'
p2786
(lp2787
F0.85634586182600003
asS'67873734'
p2788
(lp2789
F0.28767220828500001
asS'17167572'
p2790
(lp2791
F1.06962884735
asS'389669612'
p2792
(lp2793
F0.888671375609
asS'36024535'
p2794
(lp2795
F1.0913584117599999
asS'298738919'
p2796
(lp2797
F0.99425051255999997
asS'106810725'
p2798
(lp2799
F-0.54407706785300003
asS'1105693836'
p2800
(lp2801
F-0.69093277903899997
asS'564068690'
p2802
(lp2803
F-0.31580362217199998
asS'253813547'
p2804
(lp2805
F1.004531461
asS'3303389147'
p2806
(lp2807
F0.49900958882500002
asS'509769573'
p2808
(lp2809
F0.20516570023899999
asS'117511000'
p2810
(lp2811
F-0.84499400145799997
asS'253791853'
p2812
(lp2813
F-1.06163068355
asS'3303501297'
p2814
(lp2815
F-0.65966299224900005
asS'227089517'
p2816
(lp2817
F-1.3289601574500001
asS'370407497'
p2818
(lp2819
F0.074461181606900004
asS'520605382'
p2820
(lp2821
F-2.1075213042600001
asS'28059115'
p2822
(lp2823
F0.29084618736599999
asS'341179470'
p2824
(lp2825
F-0.32070641253600002
asS'1904772828'
p2826
(lp2827
F-0.0585521637638
asS'179398887'
p2828
(lp2829
F-0.25212649048300001
asS'3053054433'
p2830
(lp2831
F0.62009628025700003
asS'1230007218'
p2832
(lp2833
F-0.99935986674099997
asS'23058035'
p2834
(lp2835
F-1.29257992963
asS'45326172'
p2836
(lp2837
F-0.309313370092
asS'196479615'
p2838
(lp2839
F0.50084931627399998
asS'621983823'
p2840
(lp2841
F3.1183080715
asS'57388123'
p2842
(lp2843
F-0.50670539143100002
asS'2907313046'
p2844
(lp2845
F0.134559540527
asS'180786728'
p2846
(lp2847
F-1.0128256382700001
asS'614867166'
p2848
(lp2849
F0.92729644326000005
asS'564890144'
p2850
(lp2851
F-0.69030013304600002
asS'3331584491'
p2852
(lp2853
F-0.77709792346999995
asS'378815402'
p2854
(lp2855
F1.813876354
asS'972676584'
p2856
(lp2857
F0.61856940548799999
asS'195699945'
p2858
(lp2859
F-0.13644361537399999
asS'3161572499'
p2860
(lp2861
F2.6599544553299999
asS'5254851'
p2862
(lp2863
F-0.21502639621799999
asS'448706240'
p2864
(lp2865
F-0.76056524966299999
asS'470528439'
p2866
(lp2867
F-0.637247540886
asS'488715970'
p2868
(lp2869
F-0.37962731813900003
asS'1523084330'
p2870
(lp2871
F0.098066411101499995
asS'903122724'
p2872
(lp2873
F1.86677591704
asS'233933230'
p2874
(lp2875
F0.91680525322499995
asS'2995123902'
p2876
(lp2877
F-0.36731361607500002
asS'1111294736'
p2878
(lp2879
F-0.35038140048999999
asS'814121478'
p2880
(lp2881
F-1.0115418540000001
asS'77602579'
p2882
(lp2883
F0.79780115578300004
asS'536803217'
p2884
(lp2885
F0.36993125416099998
asS'2710813772'
p2886
(lp2887
F-1.46871726784
asS'1559437922'
p2888
(lp2889
F-0.58488343442099999
asS'234660291'
p2890
(lp2891
F1.6960991787799999
asS'371924226'
p2892
(lp2893
F0.044300178206399997
asS'1357315292'
p2894
(lp2895
F0.40586974278499999
asS'2290558314'
p2896
(lp2897
F-1.94390968006
asS'223813995'
p2898
(lp2899
F-2.5248671055999998
asS'2924837358'
p2900
(lp2901
F0.22337656206100001
asS'2155965720'
p2902
(lp2903
F-1.3686009584400001
asS'2831172226'
p2904
(lp2905
F-9.7508067814900006
asS'193573825'
p2906
(lp2907
F-1.36917424037
asS'333096539'
p2908
(lp2909
F-0.25673315415199999
asS'875198178'
p2910
(lp2911
F2.91835987361
asS'2551981338'
p2912
(lp2913
F-1.24451631691
asS'3206819361'
p2914
(lp2915
F1.5513323157500001
asS'3035739602'
p2916
(lp2917
F-0.46283304955600002
asS'2456514644'
p2918
(lp2919
F-0.477925869314
asS'9739202'
p2920
(lp2921
F-2.2406272926000002
asS'33856647'
p2922
(lp2923
F-0.044481470783900003
asS'53156275'
p2924
(lp2925
F0.42265894550999999
asS'2452462418'
p2926
(lp2927
F1.2261150029500001
asS'497964337'
p2928
(lp2929
F-0.845067369638
asS'2970133133'
p2930
(lp2931
F-0.897946963145
asS'333883073'
p2932
(lp2933
F0.472447375926
asS'233150076'
p2934
(lp2935
F-0.98941854296700005
asS'22589460'
p2936
(lp2937
F0.028835971120600001
asS'14251801'
p2938
(lp2939
F-1.77058697106
asS'462683900'
p2940
(lp2941
F-0.42670431010400001
asS'2272492262'
p2942
(lp2943
F-0.31907536345800003
asS'1093161157'
p2944
(lp2945
F2.9025152205500002
asS'430205622'
p2946
(lp2947
F2.5784293838200001
asS'385836840'
p2948
(lp2949
F-1.0871012791700001
asS'3118964419'
p2950
(lp2951
F0.76704688276699995
asS'446515593'
p2952
(lp2953
F-0.23158044291800001
asS'756049831'
p2954
(lp2955
F1.35951253287
asS'3033186133'
p2956
(lp2957
F1.23921428345
asS'288451785'
p2958
(lp2959
F1.6029384843200001
asS'336328667'
p2960
(lp2961
F-0.71900336166500001
asS'596749764'
p2962
(lp2963
F-0.637222187818
asS'256295544'
p2964
(lp2965
F-3.4053616414799999
asS'1624769948'
p2966
(lp2967
F-0.066210723236200003
asS'15738612'
p2968
(lp2969
F-1.28860059626
asS'13738192'
p2970
(lp2971
F1.0161855424299999
asS'55650895'
p2972
(lp2973
F0.48856337986499998
asS'882315709'
p2974
(lp2975
F0.180190426401
asS'3252304130'
p2976
(lp2977
F-1.4046767707500001
asS'28212338'
p2978
(lp2979
F-1.86786699004
asS'154497395'
p2980
(lp2981
F-2.2398141705099999
asS'3267461462'
p2982
(lp2983
F0.14463033782099999
asS'3039721373'
p2984
(lp2985
F-2.16024005923
asS'2110771'
p2986
(lp2987
F0.277382066885
asS'25527925'
p2988
(lp2989
F-0.27699485746399999
asS'76514412'
p2990
(lp2991
F-0.29327757458300002
asS'3041759534'
p2992
(lp2993
F0.79383451081400003
asS'2882815516'
p2994
(lp2995
F1.70192158193
asS'93107131'
p2996
(lp2997
F1.2493962212700001
asS'51534880'
p2998
(lp2999
F-0.70482735893899995
asS'139682816'
p3000
(lp3001
F-0.23110426779400001
asS'50291495'
p3002
(lp3003
F-1.7099160155099999
asS'565990533'
p3004
(lp3005
F1.18485010211
asS'214042242'
p3006
(lp3007
F0.45838561548000001
asS'271582357'
p3008
(lp3009
F0.25095910318800002
asS'3346946283'
p3010
(lp3011
F-1.5807267996300001
asS'18014373'
p3012
(lp3013
F-2.2291150288399999
asS'42520161'
p3014
(lp3015
F0.087793548528599996
asS'833692508'
p3016
(lp3017
F-0.40756947371000002
asS'2991043915'
p3018
(lp3019
F-0.199045688183
asS'2515748377'
p3020
(lp3021
F1.3789091387800001
asS'587754021'
p3022
(lp3023
F-1.3206733559099999
asS'969863028'
p3024
(lp3025
F1.0181996283100001
asS'958800630'
p3026
(lp3027
F-0.63430556384900005
asS'449430615'
p3028
(lp3029
F0.205220593521
asS'3330290146'
p3030
(lp3031
F-1.5851532927800001
asS'116826365'
p3032
(lp3033
F2.0651692971100002
asS'544927839'
p3034
(lp3035
F2.3305053280600001
asS'370253741'
p3036
(lp3037
F0.66966091939200001
asS'2196884166'
p3038
(lp3039
F-0.92095762443999996
asS'42106370'
p3040
(lp3041
F-2.2278016158599998
asS'85758791'
p3042
(lp3043
F0.34047732840799999
asS'461803892'
p3044
(lp3045
F-2.2617383173999999
asS'29343070'
p3046
(lp3047
F1.4571464977199999
asS'1605668706'
p3048
(lp3049
F1.11203522964
asS'2762590129'
p3050
(lp3051
F0.27907393381399997
asS'386047805'
p3052
(lp3053
F0.14634215174599999
asS'162406336'
p3054
(lp3055
F0.37961197606699998
asS'990342288'
p3056
(lp3057
F4.6550290384800004
asS'1653842720'
p3058
(lp3059
F-1.83012219011
asS'37792953'
p3060
(lp3061
F-2.5232527625099999
asS'2604628464'
p3062
(lp3063
F-2.08024259932
asS'1938077630'
p3064
(lp3065
F1.5342352214799999
asS'16027532'
p3066
(lp3067
F1.0239588899100001
asS'1895992122'
p3068
(lp3069
F-2.6222958542999999
asS'3043915019'
p3070
(lp3071
F1.1352875407
asS'2728030319'
p3072
(lp3073
F-0.28694431724800001
asS'276448675'
p3074
(lp3075
F0.43633563146100002
asS'63433488'
p3076
(lp3077
F-1.2156357153599999
asS'3164925309'
p3078
(lp3079
F1.99711694286
asS'343529731'
p3080
(lp3081
F-0.268666378032
asS'2752208297'
p3082
(lp3083
F-1.3018514541399999
asS'572956335'
p3084
(lp3085
F-2.3680098521500001
asS'781353956'
p3086
(lp3087
F-2.2760053075100002
asS'2897874217'
p3088
(lp3089
F0.022047955981100001
asS'226521605'
p3090
(lp3091
F-0.37746664939899999
asS'3131055880'
p3092
(lp3093
F1.8550796572899999
asS'2236166862'
p3094
(lp3095
F-0.165735884606
asS'397647118'
p3096
(lp3097
F0.47981920916800003
asS'1979318335'
p3098
(lp3099
F1.8570554856599999
asS'197518793'
p3100
(lp3101
F-0.75192050719600001
asS'248408004'
p3102
(lp3103
F1.5141047884900001
asS'45849604'
p3104
(lp3105
F-3.4779135668099999
asS'23636341'
p3106
(lp3107
F1.4055293985199999
asS'19786336'
p3108
(lp3109
F0.118234521621
asS'405418036'
p3110
(lp3111
F-1.5243077760899999
asS'295953728'
p3112
(lp3113
F-0.47332425655900001
asS'102552186'
p3114
(lp3115
F0.55901638321299996
asS'1370051250'
p3116
(lp3117
F-1.7475498920899999
asS'2417189972'
p3118
(lp3119
F0.614172940798
asS'100789993'
p3120
(lp3121
F-0.13767123504100001
asS'16042210'
p3122
(lp3123
F0.43618373956200002
asS'976570982'
p3124
(lp3125
F-2.4836078819099998
asS'2966783441'
p3126
(lp3127
F0.21726050209700001
asS'185360779'
p3128
(lp3129
F-1.5615139092300001
asS'2432345448'
p3130
(lp3131
F0.67466210901500001
asS'442194176'
p3132
(lp3133
F0.25319436591299999
asS'2427549086'
p3134
(lp3135
F0.40232703059500002
asS'904810734'
p3136
(lp3137
F-0.057018690427899997
asS'3185235143'
p3138
(lp3139
F-0.31535750657200001
asS'391599105'
p3140
(lp3141
F-2.2946440106199999
asS'281310593'
p3142
(lp3143
F-1.1021364757700001
asS'2743029652'
p3144
(lp3145
F0.61182027581999998
asS'2908458650'
p3146
(lp3147
F-0.120847957551
asS'381093957'
p3148
(lp3149
F-0.046750521960799998
asS'2894492515'
p3150
(lp3151
F-0.65561158691999999
asS'3015895638'
p3152
(lp3153
F0.41949833980599999
asS'770521927'
p3154
(lp3155
F-0.337359968796
asS'311622816'
p3156
(lp3157
F0.180572102417
asS'460516990'
p3158
(lp3159
F-2.6724721973299999
asS'35814494'
p3160
(lp3161
F-1.05436486884
asS'2229265825'
p3162
(lp3163
F-1.4363636077499999
asS'21395960'
p3164
(lp3165
F-2.04148715461
asS'198203340'
p3166
(lp3167
F1.73026417628
asS'239617607'
p3168
(lp3169
F-0.15976538373099999
asS'1107454231'
p3170
(lp3171
F0.138998749018
asS'59889375'
p3172
(lp3173
F0.18535131845799999
asS'3242880618'
p3174
(lp3175
F2.9776332380100001
asS'792069997'
p3176
(lp3177
F1.31044031614
asS'3126680683'
p3178
(lp3179
F-0.74626339239399997
asS'2894032402'
p3180
(lp3181
F0.79917209063000005
asS'43489755'
p3182
(lp3183
F2.6896964953200002
asS'3342026337'
p3184
(lp3185
F-0.87256150787599995
asS'2190483199'
p3186
(lp3187
F-0.78738660095599999
asS'9384712'
p3188
(lp3189
F2.0306010212599999
asS'416040278'
p3190
(lp3191
F-0.34571349832800002
asS'3102422154'
p3192
(lp3193
F0.099700097284199998
asS'2177337757'
p3194
(lp3195
F-0.73397249879799997
asS'64722891'
p3196
(lp3197
F-1.74279767977
asS'50194631'
p3198
(lp3199
F0.375777622541
asS'50633083'
p3200
(lp3201
F-0.57513772454099998
asS'480632431'
p3202
(lp3203
F-0.17159997104399999
asS'576259739'
p3204
(lp3205
F0.88571724146399999
asS'2487908323'
p3206
(lp3207
F-1.4113070838899999
asS'715044396'
p3208
(lp3209
F-1.78799722522
asS'3053753441'
p3210
(lp3211
F-1.8007621436100001
asS'93194555'
p3212
(lp3213
F-1.9068350281099999
asS'1000849548'
p3214
(lp3215
F2.1443418683800002
asS'25697311'
p3216
(lp3217
F-0.673821371103
asS'3097044714'
p3218
(lp3219
F-0.947201918536
asS'266686959'
p3220
(lp3221
F-0.62277614445899998
asS'481801051'
p3222
(lp3223
F-2.5659679414699998
asS'302353072'
p3224
(lp3225
F2.2280477581200002
asS'1949759941'
p3226
(lp3227
F-0.322604538504
asS'20275809'
p3228
(lp3229
F-0.66028598124899995
asS'3000911754'
p3230
(lp3231
F1.1273278632499999
asS'42245932'
p3232
(lp3233
F-1.7903477510700001
asS'101945848'
p3234
(lp3235
F0.81292801756199995
asS'2359848745'
p3236
(lp3237
F3.2072353150000001
asS'1099255296'
p3238
(lp3239
F1.66172479709
asS'1402815517'
p3240
(lp3241
F-0.87907550156299996
asS'1871547854'
p3242
(lp3243
F-1.05462435672
asS'794810444'
p3244
(lp3245
F-0.36788237955899999
asS'117010608'
p3246
(lp3247
F-0.63918902583699999
asS'51175773'
p3248
(lp3249
F1.7235938720799999
asS'2820860233'
p3250
(lp3251
F2.2059902275200001
asS'2174118859'
p3252
(lp3253
F-0.534171753069
asS'3171644885'
p3254
(lp3255
F-1.15943965858
asS'18037344'
p3256
(lp3257
F1.1909898804700001
asS'3060277294'
p3258
(lp3259
F1.6260356090200001
asS'3170681876'
p3260
(lp3261
F0.89708770125799997
asS'933647382'
p3262
(lp3263
F-0.086105891251000002
asS'517084598'
p3264
(lp3265
F0.29988935889000001
asS'3163317251'
p3266
(lp3267
F2.8275673876899998
asS'247502019'
p3268
(lp3269
F1.1868716430199999
asS'862312878'
p3270
(lp3271
F0.20783708860700001
asS'2546651261'
p3272
(lp3273
F0.83816950392800005
asS'3220784724'
p3274
(lp3275
F0.50135750584000005
asS'426804233'
p3276
(lp3277
F-0.40139738277699999
asS'28976344'
p3278
(lp3279
F-0.42030409248
asS'2485528477'
p3280
(lp3281
F-0.28388107486300002
asS'3240304124'
p3282
(lp3283
F-0.65658060934999996
asS'2683134085'
p3284
(lp3285
F0.74737449131199996
asS'24225635'
p3286
(lp3287
F-0.17237342276199999
asS'2259688530'
p3288
(lp3289
F-0.2476150167
asS'48663757'
p3290
(lp3291
F4.3276269326800003
asS'3368792476'
p3292
(lp3293
F1.44741885198
asS'2609463888'
p3294
(lp3295
F-0.70472825321499999
asS'2899816762'
p3296
(lp3297
F-0.93453065151500003
asS'712383758'
p3298
(lp3299
F1.7868249376300001
asS'2744370787'
p3300
(lp3301
F-0.102655791725
asS'2903479080'
p3302
(lp3303
F0.79820749563899995
asS'548246959'
p3304
(lp3305
F-1.25949987899
asS'320146757'
p3306
(lp3307
F-0.29714028193999997
asS'3000602296'
p3308
(lp3309
F1.68136682723
asS'126523005'
p3310
(lp3311
F-0.53697341236700002
asS'3121592238'
p3312
(lp3313
F-1.8693015474900001
asS'3292215519'
p3314
(lp3315
F-0.72194630156999995
asS'349222101'
p3316
(lp3317
F-0.779715706876
asS'74923909'
p3318
(lp3319
F-0.22178766709100001
asS'132722588'
p3320
(lp3321
F1.58550320485
asS'979402231'
p3322
(lp3323
F0.00539156888108
asS'37979031'
p3324
(lp3325
F-0.0237555831677
asS'1017189240'
p3326
(lp3327
F-0.37614048666799998
asS'542156090'
p3328
(lp3329
F2.6745923402399998
asS'360001485'
p3330
(lp3331
F3.3104977779999998
asS'2970593542'
p3332
(lp3333
F0.93754822089500001
asS'2306006749'
p3334
(lp3335
F0.70207323998799998
asS'92468768'
p3336
(lp3337
F3.2395881323600002
asS'515136400'
p3338
(lp3339
F-0.48323746055099998
asS'220521204'
p3340
(lp3341
F0.017672142842900002
asS'403907893'
p3342
(lp3343
F0.21984998232899999
asS'318035237'
p3344
(lp3345
F0.19924093793799999
asS'100306237'
p3346
(lp3347
F-0.53682957645999996
asS'2180563412'
p3348
(lp3349
F0.63019686452500001
asS'50885144'
p3350
(lp3351
F-0.30836586329299998
asS'357901696'
p3352
(lp3353
F0.0087907745500199995
asS'555892450'
p3354
(lp3355
F-0.34795540580200002
asS'993585120'
p3356
(lp3357
F-1.6726000751400001
asS'465268864'
p3358
(lp3359
F1.93951181335
asS'985567560'
p3360
(lp3361
F0.70570353291499999
asS'160662502'
p3362
(lp3363
F-2.2126081095100001
asS'387472346'
p3364
(lp3365
F-0.32255260406000003
asS'20295082'
p3366
(lp3367
F1.0677199408
asS'1117114844'
p3368
(lp3369
F0.14464904000000001
asS'1219714032'
p3370
(lp3371
F-0.441434773143
asS'2730053550'
p3372
(lp3373
F-1.40582828885
asS'557078282'
p3374
(lp3375
F0.122792690282
asS'1706347562'
p3376
(lp3377
F-0.94642217735
asS'35046000'
p3378
(lp3379
F-0.20441668309399999
asS'493759293'
p3380
(lp3381
F-0.52085417451899996
asS'510813253'
p3382
(lp3383
F-0.29096791483899997
asS'1955918744'
p3384
(lp3385
F0.89767574392799998
asS'198004487'
p3386
(lp3387
F-0.061731025878099997
asS'2429648227'
p3388
(lp3389
F-0.022485178842299999
asS'18028698'
p3390
(lp3391
F0.26491090121200001
asS'365759123'
p3392
(lp3393
F0.91489466291900001
asS'22303562'
p3394
(lp3395
F-0.87548697240200002
asS'2375945442'
p3396
(lp3397
F1.26990393342
asS'75403792'
p3398
(lp3399
F-1.1322706582399999
asS'233268937'
p3400
(lp3401
F-0.205432332296
asS'140265010'
p3402
(lp3403
F-2.1552278525999999
asS'258551101'
p3404
(lp3405
F-0.012930084853
asS'1120979353'
p3406
(lp3407
F0.88348686582799996
asS'28737338'
p3408
(lp3409
F-0.236876666195
asS'82881276'
p3410
(lp3411
F-2.5574105899499999
asS'1977419539'
p3412
(lp3413
F0.54355791487500005
asS'2924173747'
p3414
(lp3415
F0.54594160484900001
asS'2901941750'
p3416
(lp3417
F-1.97909636586
asS'345477875'
p3418
(lp3419
F-2.3367718656999998
asS'2872454995'
p3420
(lp3421
F-1.1469784782200001
asS'125036205'
p3422
(lp3423
F0.45400826165899999
asS'15020730'
p3424
(lp3425
F-0.32194694944000002
asS'2889484097'
p3426
(lp3427
F-0.91309231937099999
asS'37794539'
p3428
(lp3429
F-1.7054888365
asS'548626907'
p3430
(lp3431
F-1.81180545733
asS'954148879'
p3432
(lp3433
F0.97557099001799996
asS'407839506'
p3434
(lp3435
F0.129644535852
asS'3321488885'
p3436
(lp3437
F0.63326795103
asS'47520535'
p3438
(lp3439
F-1.2155038498199999
asS'288919245'
p3440
(lp3441
F0.58883047429900004
asS'47096351'
p3442
(lp3443
F-1.54577301288
asS'2361911206'
p3444
(lp3445
F1.32392830657
asS'292370994'
p3446
(lp3447
F0.85025427732799996
asS'406705341'
p3448
(lp3449
F-1.34614691143
asS'950784150'
p3450
(lp3451
F2.1040247972100001
asS'2855795572'
p3452
(lp3453
F0.89624597559700003
asS'215446879'
p3454
(lp3455
F0.290031794678
asS'64813290'
p3456
(lp3457
F-0.84158684576099996
asS'3318314009'
p3458
(lp3459
F2.56494922609
asS'23846387'
p3460
(lp3461
F1.8949742569100001
asS'3041943642'
p3462
(lp3463
F1.85314156666
asS'361639486'
p3464
(lp3465
F-0.29498032985900002
asS'607886013'
p3466
(lp3467
F-0.14845036622499999
asS'1535720599'
p3468
(lp3469
F-2.5923003964600002
asS'2753117904'
p3470
(lp3471
F1.9929644584699999
asS'593118823'
p3472
(lp3473
F-4.5058552553900002
asS'2782914858'
p3474
(lp3475
F-1.34417948565
asS'2767997646'
p3476
(lp3477
F-1.2826680645499999
asS'30724156'
p3478
(lp3479
F2.5240924796300002
asS'713310595'
p3480
(lp3481
F-0.18500281707300001
asS'3256540614'
p3482
(lp3483
F-0.94959105140400002
asS'2534342832'
p3484
(lp3485
F-1.4429083760000001
asS'369249722'
p3486
(lp3487
F0.50136370298400001
asS'404919473'
p3488
(lp3489
F0.19832918156900001
asS'2663115926'
p3490
(lp3491
F-1.13392369259
asS'2194928326'
p3492
(lp3493
F-1.61105283552
asS'2948775659'
p3494
(lp3495
F-1.1549912114700001
asS'2802124516'
p3496
(lp3497
F-0.27959469513599999
asS'466773232'
p3498
(lp3499
F-0.38961851816300003
asS'20306034'
p3500
(lp3501
F0.77905919896599995
asS'350747623'
p3502
(lp3503
F2.5476730018299998
asS'223185716'
p3504
(lp3505
F0.36143879458299999
asS'3038719164'
p3506
(lp3507
F0.25216389641100001
asS'1618797350'
p3508
(lp3509
F-1.26312250051
asS'54454385'
p3510
(lp3511
F0.64094918506099996
asS'1715841900'
p3512
(lp3513
F-0.78770772647300003
asS'769171752'
p3514
(lp3515
F1.25691233223
asS'132286315'
p3516
(lp3517
F-0.70790236843900001
asS'14810811'
p3518
(lp3519
F1.70097850347
asS'1900908690'
p3520
(lp3521
F2.2151597453799998
asS'1551803456'
p3522
(lp3523
F-0.718348590279
asS'3112095424'
p3524
(lp3525
F-1.1312037668299999
asS'350047207'
p3526
(lp3527
F-0.70140219714300001
asS'153726491'
p3528
(lp3529
F0.55458134061599995
asS'3362824845'
p3530
(lp3531
F-0.74105346828600005
asS'84408506'
p3532
(lp3533
F0.60341651506399996
asS'25622882'
p3534
(lp3535
F1.88569252731
asS'96825691'
p3536
(lp3537
F-1.06772109449
asS'2835888253'
p3538
(lp3539
F-0.42321990577500002
asS'734560633'
p3540
(lp3541
F-0.58001151997099998
asS'747723973'
p3542
(lp3543
F1.07052247236
asS'310483874'
p3544
(lp3545
F-2.5796476160899999
asS'47348085'
p3546
(lp3547
F0.036729004320600001
asS'281294184'
p3548
(lp3549
F-2.6133497351599999
asS'251905304'
p3550
(lp3551
F1.0597028421500001
asS'298821330'
p3552
(lp3553
F0.14685743688799999
asS'2789451130'
p3554
(lp3555
F-1.4468929643299999
asS'2772418567'
p3556
(lp3557
F1.4594802166500001
asS'3257222090'
p3558
(lp3559
F-1.78611375325
asS'2810237143'
p3560
(lp3561
F-1.0883542288500001
asS'899038374'
p3562
(lp3563
F0.94858346341800004
asS'3355850123'
p3564
(lp3565
F-1.2167570976099999
asS'1282258585'
p3566
(lp3567
F-0.33519496429200002
asS'2477424361'
p3568
(lp3569
F1.1173550270799999
asS'3299793525'
p3570
(lp3571
F-1.09663780669
asS'1397684953'
p3572
(lp3573
F-0.87600670911
asS'244336768'
p3574
(lp3575
F-0.89499677612299999
asS'284875256'
p3576
(lp3577
F-0.54790554431399996
asS'246362853'
p3578
(lp3579
F-0.91713233141899997
asS'516573984'
p3580
(lp3581
F-0.12645801277499999
asS'2904569183'
p3582
(lp3583
F-1.36321132045
asS'3274932152'
p3584
(lp3585
F1.1874609283499999
asS'14303077'
p3586
(lp3587
F-2.0122356410200002
asS'1374664320'
p3588
(lp3589
F-0.290224967384
asS'65533495'
p3590
(lp3591
F-0.51620797252700001
asS'2860589726'
p3592
(lp3593
F-1.4350779382300001
asS'495072523'
p3594
(lp3595
F1.2974841964099999
asS'108683893'
p3596
(lp3597
F-0.76912988190999998
asS'74968200'
p3598
(lp3599
F0.82663651863900001
asS'2953952180'
p3600
(lp3601
F-0.35197934058899999
asS'3252886586'
p3602
(lp3603
F0.78058096730000004
asS'36207113'
p3604
(lp3605
F0.13930587884699999
asS'287084075'
p3606
(lp3607
F-0.061285510425899997
asS'1833167173'
p3608
(lp3609
F0.87164685012599996
asS'3201685978'
p3610
(lp3611
F-0.32888449065399999
asS'2312309148'
p3612
(lp3613
F1.00608467889
asS'44174813'
p3614
(lp3615
F-0.25392881897800001
asS'69899423'
p3616
(lp3617
F0.43306527251900001
asS'2383867424'
p3618
(lp3619
F0.481351869042
asS'1476111248'
p3620
(lp3621
F0.47356643756099998
asS'36450346'
p3622
(lp3623
F1.8201471965
asS'26146954'
p3624
(lp3625
F-0.229662405535
asS'3119138842'
p3626
(lp3627
F1.2215886406900001
asS'51794810'
p3628
(lp3629
F-1.1512327790400001
asS'414161049'
p3630
(lp3631
F0.014326458314
asS'2195493073'
p3632
(lp3633
F-1.59435135558
asS'40756848'
p3634
(lp3635
F0.53755742102899995
asS'937254745'
p3636
(lp3637
F-0.402440429288
asS'1302428840'
p3638
(lp3639
F-0.057642174129400002
asS'711499801'
p3640
(lp3641
F-0.69884928699100002
asS'32523860'
p3642
(lp3643
F1.96439730407
asS'525963811'
p3644
(lp3645
F-1.9337009810700001
asS'506834929'
p3646
(lp3647
F-1.25567352329
asS'330759494'
p3648
(lp3649
F-0.36577022683600002
asS'582445927'
p3650
(lp3651
F1.06901635513
asS'275845347'
p3652
(lp3653
F0.63626430226899999
asS'192063194'
p3654
(lp3655
F0.67408780489300002
asS'314243234'
p3656
(lp3657
F-1.0928648084199999
asS'20913524'
p3658
(lp3659
F1.7467675443699999
asS'1855651098'
p3660
(lp3661
F2.3439462129300002
asS'2154273384'
p3662
(lp3663
F-0.15303273785300001
asS'1541891113'
p3664
(lp3665
F-0.58206538805600005
asS'2549540509'
p3666
(lp3667
F0.58417169718899997
asS'118991546'
p3668
(lp3669
F0.75728806617300004
asS'332936866'
p3670
(lp3671
F1.2628956381000001
asS'89561713'
p3672
(lp3673
F-1.02799610586
asS'919886574'
p3674
(lp3675
F1.06349783858
asS'2435948240'
p3676
(lp3677
F-0.46120355654400003
asS'609485539'
p3678
(lp3679
F-0.150378187794
asS'2780472178'
p3680
(lp3681
F-0.69864252713399999
asS'2991308787'
p3682
(lp3683
F0.0055536607903099999
asS'105498404'
p3684
(lp3685
F-0.383422024325
asS'537496763'
p3686
(lp3687
F-0.44902210609400001
asS'61567598'
p3688
(lp3689
F-0.39890286918700002
asS'626067666'
p3690
(lp3691
F1.22408725079
asS'75946288'
p3692
(lp3693
F-1.2281028054700001
asS'3256080464'
p3694
(lp3695
F-0.62008764065599997
asS'19142551'
p3696
(lp3697
F-1.71406121158
asS'570472249'
p3698
(lp3699
F-0.12700116700700001
asS'977434538'
p3700
(lp3701
F1.0202283752700001
asS'2950081504'
p3702
(lp3703
F-1.4634177050599999
asS'271126094'
p3704
(lp3705
F-0.36077335695399998
asS'291839469'
p3706
(lp3707
F-0.64758578205899997
asS'840424010'
p3708
(lp3709
F3.0867601946700001
asS'28644910'
p3710
(lp3711
F1.7640047593699999
asS'1149353412'
p3712
(lp3713
F-0.45698935752600001
asS'2176428032'
p3714
(lp3715
F-0.16075014448200001
asS'2391870344'
p3716
(lp3717
F-1.11198658111
asS'1889854964'
p3718
(lp3719
F0.48932492377199999
asS'2834166882'
p3720
(lp3721
F-0.58395929397900004
asS'267085354'
p3722
(lp3723
F-0.163571210238
asS'547166559'
p3724
(lp3725
F-1.12569872329
asS'275714700'
p3726
(lp3727
F1.23741499567
asS'336721797'
p3728
(lp3729
F0.060256020437500002
asS'3164632718'
p3730
(lp3731
F1.3598312608100001
asS'2614101470'
p3732
(lp3733
F0.47034009919699998
asS'2718241163'
p3734
(lp3735
F3.1604452411300001
asS'872664656'
p3736
(lp3737
F2.3906994795399998
asS'474202929'
p3738
(lp3739
F-1.8097951222999999
asS'41479697'
p3740
(lp3741
F-0.47851331628999999
asS'1662566360'
p3742
(lp3743
F-1.1709260432999999
asS'112604113'
p3744
(lp3745
F-0.31810101075300001
asS'95930466'
p3746
(lp3747
F0.101952568753
asS'320478877'
p3748
(lp3749
F1.0890263377
asS'1317009750'
p3750
(lp3751
F0.248643348141
asS'3293630295'
p3752
(lp3753
F-0.55865868858300005
asS'129933461'
p3754
(lp3755
F-1.92277246212
asS'397812389'
p3756
(lp3757
F-0.99138353829799997
asS'201553765'
p3758
(lp3759
F-0.55449018597199995
asS'357175021'
p3760
(lp3761
F1.31951096431
asS'305851676'
p3762
(lp3763
F-0.31655320119000002
asS'212853504'
p3764
(lp3765
F1.274521724
asS'1963571004'
p3766
(lp3767
F-0.65615788273499998
asS'1184640014'
p3768
(lp3769
F-0.34305495062399999
asS'25817664'
p3770
(lp3771
F-0.79678264744899996
asS'46808996'
p3772
(lp3773
F-0.462348656543
asS'1458272461'
p3774
(lp3775
F-1.9530703656399999
asS'305501561'
p3776
(lp3777
F-1.1393250715600001
asS'2319025602'
p3778
(lp3779
F0.22536582432300001
asS'2920589622'
p3780
(lp3781
F0.55940393958800005
asS'2798979048'
p3782
(lp3783
F1.24175898065
asS'343095829'
p3784
(lp3785
F-0.57616817052799996
asS'3078208799'
p3786
(lp3787
F0.164811978005
asS'78170242'
p3788
(lp3789
F0.81787179876500005
asS'64267838'
p3790
(lp3791
F0.36557240893300003
asS'572388577'
p3792
(lp3793
F0.84033311619999995
asS'2911679200'
p3794
(lp3795
F0.051451604428299998
asS'258916333'
p3796
(lp3797
F0.119802379862
asS'3189230557'
p3798
(lp3799
F1.43794076482
asS'21515818'
p3800
(lp3801
F-0.74504175435200004
asS'313186446'
p3802
(lp3803
F1.53633259276
asS'3151857912'
p3804
(lp3805
F0.041729791282899997
asS'103719930'
p3806
(lp3807
F-0.82720522378500005
asS'1642402514'
p3808
(lp3809
F-1.7458506142300001
asS'159302754'
p3810
(lp3811
F-0.82234232743799995
asS'241689056'
p3812
(lp3813
F0.83523051766400003
asS'3145845406'
p3814
(lp3815
F0.73477429293800001
asS'38054768'
p3816
(lp3817
F1.36030631105
asS'2881778014'
p3818
(lp3819
F0.31158181648
asS'43345725'
p3820
(lp3821
F0.64259383958100003
asS'945530322'
p3822
(lp3823
F0.29000064398199998
asS'215491063'
p3824
(lp3825
F1.08368267104
asS'2788150925'
p3826
(lp3827
F-1.25501271931
asS'582294741'
p3828
(lp3829
F-1.28277833254
asS'3329825789'
p3830
(lp3831
F-0.75932031750899998
asS'2483966217'
p3832
(lp3833
F-0.98680446555000001
asS'2568960285'
p3834
(lp3835
F0.63509536371499997
asS'534489724'
p3836
(lp3837
F-0.039039888449799998
asS'2303267462'
p3838
(lp3839
F2.4215965921699998
asS'2859217526'
p3840
(lp3841
F0.80408636444399995
asS'77144908'
p3842
(lp3843
F-1.34016878568
asS'282269124'
p3844
(lp3845
F0.97901508139299998
asS'60935743'
p3846
(lp3847
F-0.52682697462999994
asS'2785390419'
p3848
(lp3849
F-0.60818113765100001
asS'1244481517'
p3850
(lp3851
F-0.385185550263
asS'457995284'
p3852
(lp3853
F0.118954524534
asS'2244943075'
p3854
(lp3855
F-0.302377309431
asS'1615817888'
p3856
(lp3857
F-0.207483098867
asS'1215098928'
p3858
(lp3859
F-1.5639816975700001
asS'2970485691'
p3860
(lp3861
F-2.5508004897899998
asS'581500758'
p3862
(lp3863
F2.7442606863900001
asS'541329511'
p3864
(lp3865
F4.2390346144100004
asS'531598198'
p3866
(lp3867
F-1.9911056952099999
asS'46491617'
p3868
(lp3869
F0.76359003368099998
asS'36420135'
p3870
(lp3871
F0.81632446002299996
asS'61321567'
p3872
(lp3873
F-1.90401396912
asS'2387540400'
p3874
(lp3875
F1.17361023853
asS'821414353'
p3876
(lp3877
F-1.7589135015199999
asS'70235285'
p3878
(lp3879
F1.24865046925
asS'1309587146'
p3880
(lp3881
F-0.63268807640500002
asS'196292489'
p3882
(lp3883
F-0.70793620177799998
asS'555306617'
p3884
(lp3885
F-0.19741543918400001
asS'1182858038'
p3886
(lp3887
F-1.7463036861900001
asS'553308886'
p3888
(lp3889
F0.55888653804599997
asS'2848382739'
p3890
(lp3891
F0.097531722901399998
asS'2655491030'
p3892
(lp3893
F0.0072543188453500001
asS'1241691530'
p3894
(lp3895
F-1.12457404574
asS'3254910506'
p3896
(lp3897
F0.42430601055900002
asS'241769973'
p3898
(lp3899
F-0.028350001827599999
asS'373998936'
p3900
(lp3901
F-0.73739702014300001
asS'23271347'
p3902
(lp3903
F1.4536140694199999
asS'2587529058'
p3904
(lp3905
F-0.075107867189599997
asS'836749134'
p3906
(lp3907
F-0.078636843891099997
asS'551112681'
p3908
(lp3909
F1.23014744455
asS'3254663659'
p3910
(lp3911
F-1.6208092325600001
asS'626003565'
p3912
(lp3913
F-0.068350653014400006
asS'260730899'
p3914
(lp3915
F0.47991499125600001
asS'3244932869'
p3916
(lp3917
F-0.98385971293800001
asS'448111957'
p3918
(lp3919
F-0.17925919003400001
asS'324331427'
p3920
(lp3921
F0.11698297402500001
asS'2322775592'
p3922
(lp3923
F-0.85571114703700002
asS'3111237760'
p3924
(lp3925
F-2.6697784194700001
asS'1450141088'
p3926
(lp3927
F1.0848080021199999
asS'635404938'
p3928
(lp3929
F1.3553512220999999
asS'3250022354'
p3930
(lp3931
F-1.18102519016
asS'18227863'
p3932
(lp3933
F1.4980230237100001
asS'2869086157'
p3934
(lp3935
F-1.8400160056899999
asS'2560238717'
p3936
(lp3937
F0.55620574029299996
asS'890921756'
p3938
(lp3939
F-0.298638212821
asS'379082219'
p3940
(lp3941
F-0.44912977799800002
asS'110023569'
p3942
(lp3943
F0.95456073895500004
asS'17180291'
p3944
(lp3945
F-0.77279542968299997
asS'356858339'
p3946
(lp3947
F0.87963413132699997
asS'15577097'
p3948
(lp3949
F-0.32142475007299998
asS'3223618334'
p3950
(lp3951
F-0.69312372071299999
asS'16223976'
p3952
(lp3953
F0.67046689689000005
asS'35556048'
p3954
(lp3955
F1.72989359718
asS'349219338'
p3956
(lp3957
F2.29303000121
asS'3295585643'
p3958
(lp3959
F-1.46385837757
asS'2158032035'
p3960
(lp3961
F-0.46265959255299999
asS'1489300873'
p3962
(lp3963
F-0.105608653218
asS'22801995'
p3964
(lp3965
F0.797444010511
asS'160371272'
p3966
(lp3967
F-0.060401944337899999
asS'236250981'
p3968
(lp3969
F-2.27062140475
asS'1016280511'
p3970
(lp3971
F-1.60651875008
asS'2780633705'
p3972
(lp3973
F0.41813929530900001
asS'64687084'
p3974
(lp3975
F-0.60434146432799996
asS'3153661079'
p3976
(lp3977
F2.2225327158399999
asS'2202060642'
p3978
(lp3979
F-1.74796898471
asS'3193043938'
p3980
(lp3981
F0.71133225984100001
asS'392514148'
p3982
(lp3983
F-1.32869985286
asS'1974495078'
p3984
(lp3985
F0.53593954254200005
asS'334325106'
p3986
(lp3987
F-0.74138793724499996
asS'400307692'
p3988
(lp3989
F2.8915848910899999
asS'242863027'
p3990
(lp3991
F-2.1141725301099998
asS'3107567597'
p3992
(lp3993
F-2.8111234227800002
asS'254237744'
p3994
(lp3995
F1.3435092151200001
asS'76148385'
p3996
(lp3997
F2.7277412566499999
asS'762751633'
p3998
(lp3999
F1.0524588959600001
asS'304023456'
p4000
(lp4001
F-1.71793300078
asS'1102712310'
p4002
(lp4003
F3.4522648312699999
asS'41012342'
p4004
(lp4005
F-5.5919514473899996
asS'1913188200'
p4006
(lp4007
F1.00906392516
asS'42910675'
p4008
(lp4009
F0.55393500851499999
asS'65992273'
p4010
(lp4011
F-1.91173197618
asS'41766494'
p4012
(lp4013
F-0.26939018066199999
asS'2409709272'
p4014
(lp4015
F-1.3583012371800001
asS'3152225155'
p4016
(lp4017
F-1.54574664386
asS'356634518'
p4018
(lp4019
F0.0243723706282
asS'34830116'
p4020
(lp4021
F1.9624853659899999
asS'14577109'
p4022
(lp4023
F1.4505072002899999
asS'2190383267'
p4024
(lp4025
F-1.2073153251099999
asS'2518574096'
p4026
(lp4027
F2.4830972029499998
asS'57099757'
p4028
(lp4029
F-0.77023578364699996
asS'3153280458'
p4030
(lp4031
F0.521777173318
asS'215697991'
p4032
(lp4033
F1.08802790883
asS'938059670'
p4034
(lp4035
F-0.40216553963200002
asS'24257249'
p4036
(lp4037
F-0.738731970608
asS'13148882'
p4038
(lp4039
F-0.85423579801500005
asS'37820375'
p4040
(lp4041
F-2.1340843021699998
asS'55143'
p4042
(lp4043
F0.49635422205599999
asS'20662651'
p4044
(lp4045
F-0.51404312797499996
asS'986928554'
p4046
(lp4047
F1.1110871637499999
asS'594337767'
p4048
(lp4049
F0.041329972881000002
asS'109360465'
p4050
(lp4051
F1.5935846793199999
asS'1547761836'
p4052
(lp4053
F-0.52786303118099998
asS'3241958463'
p4054
(lp4055
F1.2455533031499999
asS'459532862'
p4056
(lp4057
F-1.8251508760099999
asS'81438841'
p4058
(lp4059
F-1.59380261744
asS'35206917'
p4060
(lp4061
F1.1145790713599999
asS'1173395690'
p4062
(lp4063
F-0.97455366367700003
asS'246842298'
p4064
(lp4065
F-1.66599910779
asS'264271174'
p4066
(lp4067
F-0.85753414644399995
asS'2436453084'
p4068
(lp4069
F2.2714807270500001
asS'415480403'
p4070
(lp4071
F-0.12946836549900001
asS'2649658651'
p4072
(lp4073
F0.42963706883000002
asS'98542228'
p4074
(lp4075
F-1.07985428358
asS'343042963'
p4076
(lp4077
F-0.73280147926100003
asS'24761032'
p4078
(lp4079
F-0.13239594485299999
asS'2303978924'
p4080
(lp4081
F-2.63221383574
asS'2967391505'
p4082
(lp4083
F-1.1303360647
asS'2579979278'
p4084
(lp4085
F-0.51059308555899996
asS'2957101507'
p4086
(lp4087
F-1.1933669381400001
asS'42966205'
p4088
(lp4089
F0.353070540318
asS'88302415'
p4090
(lp4091
F0.59496686951699995
asS'2290793182'
p4092
(lp4093
F0.61807401907600001
asS'293978620'
p4094
(lp4095
F0.72350554844799997
asS'2790823334'
p4096
(lp4097
F2.03677902031
asS'1021892072'
p4098
(lp4099
F0.55375898600499995
asS'1088990966'
p4100
(lp4101
F1.68824260625
asS'1612597453'
p4102
(lp4103
F3.7898506080800001
asS'2402757463'
p4104
(lp4105
F0.31789275043800003
asS'151005270'
p4106
(lp4107
F-2.1007068812199998
asS'52145437'
p4108
(lp4109
F-0.88547150346600001
asS'3196630410'
p4110
(lp4111
F-0.40339629210200001
asS'27049695'
p4112
(lp4113
F-0.66141761585699999
asS'2970135322'
p4114
(lp4115
F-1.03973073717
asS'17037382'
p4116
(lp4117
F2.3323910507400001
asS'3143085166'
p4118
(lp4119
F0.032351804091800003
asS'136661815'
p4120
(lp4121
F-1.0080309813799999
asS'552178363'
p4122
(lp4123
F-1.5314727852200001
asS'2604671377'
p4124
(lp4125
F-0.410670840875
asS'106790430'
p4126
(lp4127
F-0.84503472539900004
asS'422937089'
p4128
(lp4129
F-1.2774226367799999
asS'245103569'
p4130
(lp4131
F-0.563841076321
asS'1049020446'
p4132
(lp4133
F-1.0176867436100001
asS'1520243226'
p4134
(lp4135
F-0.104648184654
asS'594711386'
p4136
(lp4137
F1.53665931662
asS'1646771184'
p4138
(lp4139
F-0.233214785373
asS'370890022'
p4140
(lp4141
F0.099532746967100003
asS'863113304'
p4142
(lp4143
F0.75803166388900001
asS'21819264'
p4144
(lp4145
F-0.29014653225699999
asS'2393620658'
p4146
(lp4147
F-1.85084123613
asS'2777585076'
p4148
(lp4149
F-1.68199431115
asS'2300803690'
p4150
(lp4151
F-0.92871860012499996
asS'2763500715'
p4152
(lp4153
F3.1789905952400002
asS'538036220'
p4154
(lp4155
F-1.2704809978
asS'2924501005'
p4156
(lp4157
F1.6941803654500001
asS'122961443'
p4158
(lp4159
F1.29470715829
asS'59058094'
p4160
(lp4161
F-2.54335540179
asS'49715720'
p4162
(lp4163
F0.95193647508799994
asS'526682327'
p4164
(lp4165
F1.5021118611199999
asS'211956557'
p4166
(lp4167
F-0.39198411671200001
asS'2149562384'
p4168
(lp4169
F-0.84286061933099998
asS'2811814127'
p4170
(lp4171
F2.6946830661500001
asS'36023807'
p4172
(lp4173
F-2.06659816132
asS'2846551735'
p4174
(lp4175
F-0.0156840152755
asS'101480081'
p4176
(lp4177
F-0.45009169166700003
asS'2321152968'
p4178
(lp4179
F0.0466759944691
asS'3166163040'
p4180
(lp4181
F-0.75855166670100005
asS'3093535243'
p4182
(lp4183
F0.86525115832599997
asS'122215691'
p4184
(lp4185
F0.15181324395699999
asS'42795468'
p4186
(lp4187
F-1.39036800477
asS'1269478950'
p4188
(lp4189
F-0.45182784530600001
asS'3041874811'
p4190
(lp4191
F-0.147869055384
asS'23195683'
p4192
(lp4193
F0.479287090428
asS'1891202089'
p4194
(lp4195
F-0.51797694987099996
asS'1581664274'
p4196
(lp4197
F-1.0359678356699999
asS'439389910'
p4198
(lp4199
F-3.1234429208000001
asS'438862536'
p4200
(lp4201
F-0.18128692139499999
asS'303554946'
p4202
(lp4203
F1.12909308949
asS'35093662'
p4204
(lp4205
F-0.515944380029
asS'1608967496'
p4206
(lp4207
F-0.46088842753699999
asS'584664650'
p4208
(lp4209
F-3.2227792237799999
asS'379482411'
p4210
(lp4211
F-0.65942505665999995
asS'3146112395'
p4212
(lp4213
F1.5400675129600001
asS'2880833756'
p4214
(lp4215
F-1.0780800106499999
asS'22421834'
p4216
(lp4217
F-2.21994262208
asS'2482232082'
p4218
(lp4219
F-0.75787878352100002
asS'2256745548'
p4220
(lp4221
F0.82575958016600004
asS'142947693'
p4222
(lp4223
F-2.0299538266799999
asS'19652417'
p4224
(lp4225
F-1.6833330336100001
asS'1328235834'
p4226
(lp4227
F-0.93497830216300004
asS'2479832246'
p4228
(lp4229
F0.799788888142
asS'279164084'
p4230
(lp4231
F-1.0378103993900001
asS'211332420'
p4232
(lp4233
F0.87613374472299999
asS'31896742'
p4234
(lp4235
F0.67387777875800003
asS'63852037'
p4236
(lp4237
F0.66387174495599999
asS'351209897'
p4238
(lp4239
F-0.92407450556500004
asS'2707434466'
p4240
(lp4241
F-1.8058937050799999
asS'2424692306'
p4242
(lp4243
F0.80570334566400004
asS'24688850'
p4244
(lp4245
F-0.61594806210899999
asS'409703516'
p4246
(lp4247
F2.32037513093
asS'70249254'
p4248
(lp4249
F0.43705698845800001
asS'1733508668'
p4250
(lp4251
F0.44280556372800001
asS'122381405'
p4252
(lp4253
F0.295802324339
asS'3237384536'
p4254
(lp4255
F-1.4506268232099999
asS'902589602'
p4256
(lp4257
F-1.1264232298600001
asS'15614582'
p4258
(lp4259
F1.9137129830899999
asS'95697038'
p4260
(lp4261
F-0.336128315929
asS'575688473'
p4262
(lp4263
F2.0701212074900002
asS'124479036'
p4264
(lp4265
F0.22684600684299999
asS'3042242150'
p4266
(lp4267
F-0.43075922788299997
asS'554060122'
p4268
(lp4269
F-0.30718646482200002
asS'26452283'
p4270
(lp4271
F0.40073545735900001
asS'60121152'
p4272
(lp4273
F0.42779436354
asS'30695606'
p4274
(lp4275
F0.0078970481141899997
asS'2170765645'
p4276
(lp4277
F0.62314798540600003
asS'3217694460'
p4278
(lp4279
F0.59981750053000005
asS'26344790'
p4280
(lp4281
F1.7600698857299999
asS'33972296'
p4282
(lp4283
F-0.59375586008500003
asS'222695674'
p4284
(lp4285
F-0.101846968314
asS'1603766299'
p4286
(lp4287
F1.40853155608
asS'2905670786'
p4288
(lp4289
F-0.13696971761499999
asS'3110487671'
p4290
(lp4291
F0.60198014606299999
asS'177584156'
p4292
(lp4293
F0.47635272678599999
asS'260608707'
p4294
(lp4295
F1.64382715973
asS'270437243'
p4296
(lp4297
F-0.54946349644600001
asS'1901332344'
p4298
(lp4299
F-0.59060059357000005
asS'564060928'
p4300
(lp4301
F1.2487638047
asS'124635640'
p4302
(lp4303
F1.62382813083
asS'803058408'
p4304
(lp4305
F-1.1840825452499999
asS'1639304155'
p4306
(lp4307
F-0.69945451368699996
asS'371397087'
p4308
(lp4309
F-1.2409625178299999
asS'1870464230'
p4310
(lp4311
F-1.3722445645400001
asS'29371662'
p4312
(lp4313
F1.22063350131
asS'2874359694'
p4314
(lp4315
F-0.64348254004200001
asS'516563463'
p4316
(lp4317
F-1.27926303385
asS'3153324049'
p4318
(lp4319
F-1.21347609634
asS'28817025'
p4320
(lp4321
F1.0921922693899999
asS'241612113'
p4322
(lp4323
F-0.80235840852499996
asS'426091279'
p4324
(lp4325
F-0.63819928274399995
asS'1129745845'
p4326
(lp4327
F-0.55503607558599999
asS'34048927'
p4328
(lp4329
F0.33282145096999999
asS'41595110'
p4330
(lp4331
F2.3552631820299998
asS'1378240352'
p4332
(lp4333
F1.1479377174800001
asS'3351115882'
p4334
(lp4335
F-2.0085750802
asS'2967115505'
p4336
(lp4337
F-1.0975189302499999
asS'2585670108'
p4338
(lp4339
F0.43086628939999999
asS'1478389008'
p4340
(lp4341
F0.76016607598499997
asS'762583238'
p4342
(lp4343
F-0.96538347439200001
asS'290336510'
p4344
(lp4345
F2.6890165756200002
asS'7435562'
p4346
(lp4347
F-0.86385313476600001
asS'2280915056'
p4348
(lp4349
F-1.1106556116199999
asS'342494191'
p4350
(lp4351
F3.8370088658600001
asS'3035800695'
p4352
(lp4353
F0.65949152436699998
asS'130632861'
p4354
(lp4355
F-0.879779929884
asS'3243741217'
p4356
(lp4357
F-2.3106517563
asS'3358485281'
p4358
(lp4359
F-0.108715614691
asS'3266225124'
p4360
(lp4361
F-1.5871320787200001
asS'2166160305'
p4362
(lp4363
F-0.111563963603
asS'233789299'
p4364
(lp4365
F0.0171147266116
asS'158920425'
p4366
(lp4367
F-1.2543996616199999
asS'41983621'
p4368
(lp4369
F1.49260480146
asS'473920162'
p4370
(lp4371
F-0.70000070959000005
asS'583687484'
p4372
(lp4373
F0.93583039786800004
asS'219317380'
p4374
(lp4375
F-0.49028124317900001
asS'35298128'
p4376
(lp4377
F-0.36562767123000001
asS'3248831545'
p4378
(lp4379
F-0.35683477249700002
asS'2937150214'
p4380
(lp4381
F0.50495406514100005
asS'3033470441'
p4382
(lp4383
F-1.28647273768
asS'588344266'
p4384
(lp4385
F2.1462213540700001
asS'129594352'
p4386
(lp4387
F-0.40104067702899998
asS'3199390706'
p4388
(lp4389
F-1.4966717897299999
asS'106348183'
p4390
(lp4391
F-1.1049394562799999
asS'1720527314'
p4392
(lp4393
F-2.10130251025
asS'948337297'
p4394
(lp4395
F-1.58732439251
asS'3187165597'
p4396
(lp4397
F4.1393023156300002
asS'1856280157'
p4398
(lp4399
F-0.046647925476499999
asS'16665596'
p4400
(lp4401
F-0.87543053418799999
asS'337309414'
p4402
(lp4403
F-0.066059930513000006
asS'284325935'
p4404
(lp4405
F0.722935189556
asS'32521113'
p4406
(lp4407
F-0.50634283332399999
asS'266182223'
p4408
(lp4409
F1.2031980046199999
asS'217298076'
p4410
(lp4411
F-0.55352426298699997
asS'16248905'
p4412
(lp4413
F-0.76456645884499996
asS'126008063'
p4414
(lp4415
F-1.5220949325399999
asS'2951248177'
p4416
(lp4417
F-1.0975189302499999
asS'53537850'
p4418
(lp4419
F-1.3512416863700001
asS'348255536'
p4420
(lp4421
F-1.6228942955100001
asS'18329193'
p4422
(lp4423
F-0.00031192465626100001
asS'189749686'
p4424
(lp4425
F-1.3954198031
asS'1633773842'
p4426
(lp4427
F-3.58449068454
asS'1950980395'
p4428
(lp4429
F0.74845203518100001
asS'1285710638'
p4430
(lp4431
F-0.35457393257100001
asS'742925732'
p4432
(lp4433
F1.2152752466400001
asS'533285473'
p4434
(lp4435
F0.83395985828800001
asS'2335712275'
p4436
(lp4437
F-1.28888853865
asS'396999739'
p4438
(lp4439
F-1.65831380582
asS'16532762'
p4440
(lp4441
F1.4000040633399999
asS'20466413'
p4442
(lp4443
F-1.20382568573
asS'574387850'
p4444
(lp4445
F-0.81843143568099996
asS'622258840'
p4446
(lp4447
F4.0923599827399997
asS'35525944'
p4448
(lp4449
F0.72882698078899999
asS'15705283'
p4450
(lp4451
F-0.25215370979899998
asS'26504239'
p4452
(lp4453
F-0.92280804807299999
asS'337891434'
p4454
(lp4455
F0.21786667055799999
asS'898233312'
p4456
(lp4457
F-0.78335799850800003
asS'2527758476'
p4458
(lp4459
F-0.45294324997699997
asS'2919308995'
p4460
(lp4461
F0.76573677838499998
asS'2303077585'
p4462
(lp4463
F0.87672898173900005
asS'24388490'
p4464
(lp4465
F-0.71850082179999997
asS'33634992'
p4466
(lp4467
F1.4894618971
asS'29072192'
p4468
(lp4469
F0.41049311174899999
asS'2896958303'
p4470
(lp4471
F-0.12445158394600001
asS'29967957'
p4472
(lp4473
F0.37961032474900003
asS'3112890332'
p4474
(lp4475
F0.10861051968
asS'770885527'
p4476
(lp4477
F-0.048521254133799999
asS'3067065392'
p4478
(lp4479
F-0.17308058764600001
asS'171695328'
p4480
(lp4481
F-0.053681639428999998
asS'2889139022'
p4482
(lp4483
F0.68711075956699996
asS'97612688'
p4484
(lp4485
F2.1214992558499999
asS'588777762'
p4486
(lp4487
F0.101584368073
asS'3306792231'
p4488
(lp4489
F0.57025361745699998
asS'20457375'
p4490
(lp4491
F0.43168889495399998
asS'259263671'
p4492
(lp4493
F-2.7601580510199999
asS'410752414'
p4494
(lp4495
F1.2752514495
asS'173170847'
p4496
(lp4497
F0.18266712102400001
asS'294801275'
p4498
(lp4499
F-0.87439546813900004
asS'14413370'
p4500
(lp4501
F0.120834736608
asS'398286778'
p4502
(lp4503
F-0.65324030657700005
asS'226168436'
p4504
(lp4505
F-0.22754045277599999
asS'351805964'
p4506
(lp4507
F1.10445808362
asS'809069024'
p4508
(lp4509
F0.90756732998199996
asS'526650706'
p4510
(lp4511
F0.57022174680100002
asS'352414668'
p4512
(lp4513
F-0.80578273740299999
asS'750606396'
p4514
(lp4515
F-1.2012122918999999
asS'2595966508'
p4516
(lp4517
F-1.4380984502700001
asS'521955365'
p4518
(lp4519
F-1.51936101628
asS'18235613'
p4520
(lp4521
F0.66006524160900004
asS'68071988'
p4522
(lp4523
F0.90717968925000003
asS'14295043'
p4524
(lp4525
F1.27129702811
asS'1666246904'
p4526
(lp4527
F-0.34061032899600002
asS'3063299422'
p4528
(lp4529
F-1.0745578872399999
asS'191501593'
p4530
(lp4531
F0.73757850518699997
asS'3352556542'
p4532
(lp4533
F-1.1917311261600001
asS'22842010'
p4534
(lp4535
F-0.86033455867300002
asS'18111483'
p4536
(lp4537
F-0.0214863061281
asS'1137273540'
p4538
(lp4539
F0.43238290442100002
asS'2259483181'
p4540
(lp4541
F-0.80136550468800005
asS'2973019067'
p4542
(lp4543
F-0.25241032658000001
asS'1160802216'
p4544
(lp4545
F-1.00809848664
asS'154704806'
p4546
(lp4547
F-0.99037832989100005
asS'511637039'
p4548
(lp4549
F1.23425335874
asS'386243772'
p4550
(lp4551
F-0.4579632126
asS'76255864'
p4552
(lp4553
F-1.16278814048
asS'345716798'
p4554
(lp4555
F0.332313189186
asS'1259548171'
p4556
(lp4557
F2.3338313936100001
asS'320915056'
p4558
(lp4559
F0.00034383960345899997
asS'20641613'
p4560
(lp4561
F-1.3718285560700001
asS'3343095340'
p4562
(lp4563
F0.00066093744381800004
asS'552249623'
p4564
(lp4565
F0.26411400030100002
asS'3234053946'
p4566
(lp4567
F-1.68204020905
asS'2411472876'
p4568
(lp4569
F1.7648643879699999
asS'1656209887'
p4570
(lp4571
F-0.43538412070999999
asS'29893766'
p4572
(lp4573
F-0.72137707495799996
asS'3365382569'
p4574
(lp4575
F1.8011813753299999
asS'1260736442'
p4576
(lp4577
F-0.78632570348999997
asS'840498092'
p4578
(lp4579
F-1.3780282606000001
asS'27761892'
p4580
(lp4581
F0.31821357131299999
asS'543608212'
p4582
(lp4583
F0.017562333995099998
asS'36991251'
p4584
(lp4585
F-0.057809150651700003
asS'52560268'
p4586
(lp4587
F0.742414988409
asS'3039108088'
p4588
(lp4589
F0.39528519528599998
asS'106256962'
p4590
(lp4591
F0.13358783145299999
asS'2645395775'
p4592
(lp4593
F0.81149488291299998
asS'195785570'
p4594
(lp4595
F-0.073309327516
asS'2351894587'
p4596
(lp4597
F-0.53607196619399999
asS'714733004'
p4598
(lp4599
F-0.078402814199799997
asS'248678364'
p4600
(lp4601
F-0.69609693563200004
asS'261068895'
p4602
(lp4603
F0.82098977824899999
asS'3010762010'
p4604
(lp4605
F1.38337953285
asS'142142545'
p4606
(lp4607
F-0.091594840299900004
asS'3235283990'
p4608
(lp4609
F-0.16654095702400001
asS'44172057'
p4610
(lp4611
F-0.209425119608
asS'82741933'
p4612
(lp4613
F0.237115868438
asS'108419139'
p4614
(lp4615
F1.8797983621300001
asS'504016745'
p4616
(lp4617
F-1.1662984080800001
asS'1649038092'
p4618
(lp4619
F-1.0277174851199999
asS'14940452'
p4620
(lp4621
F0.106367542417
asS'557333306'
p4622
(lp4623
F0.13625353312499999
asS'20487541'
p4624
(lp4625
F-0.45875906940599998
asS'456868224'
p4626
(lp4627
F-1.16803001779
asS'722480016'
p4628
(lp4629
F-0.34624743606399999
asS'46870227'
p4630
(lp4631
F-0.53093659758599998
asS'91458291'
p4632
(lp4633
F-0.0041326388997100002
asS'790546093'
p4634
(lp4635
F-1.1157777977500001
asS'78897887'
p4636
(lp4637
F1.28315879127
asS'148860840'
p4638
(lp4639
F-1.05214612582
asS'514566407'
p4640
(lp4641
F-0.072888864118200003
asS'227339617'
p4642
(lp4643
F-0.18596946139699999
asS'1383038924'
p4644
(lp4645
F-0.33791329312599999
asS'384494254'
p4646
(lp4647
F0.21895951469200001
asS'440639555'
p4648
(lp4649
F0.064623387305699997
asS'763879189'
p4650
(lp4651
F1.58283397441
asS'228505560'
p4652
(lp4653
F-0.76576927889699997
asS'2973727618'
p4654
(lp4655
F2.2480583437999999
asS'548988026'
p4656
(lp4657
F-1.5714651421400001
asS'448356919'
p4658
(lp4659
F-0.91490501736600005
asS'1367955956'
p4660
(lp4661
F-0.479623186732
asS'27852072'
p4662
(lp4663
F0.83136290460600004
asS'2258147472'
p4664
(lp4665
F-0.85826830332000004
asS'1393600633'
p4666
(lp4667
F2.9937889661499999
asS'3248746786'
p4668
(lp4669
F0.90580090952500003
asS'2943710345'
p4670
(lp4671
F-0.87505045378500002
asS'256982070'
p4672
(lp4673
F0.99837208749299999
asS'61314212'
p4674
(lp4675
F1.7786185243999999
asS'228147604'
p4676
(lp4677
F-0.43423735461399998
asS'2339795449'
p4678
(lp4679
F-1.5158001480700001
asS'3041519156'
p4680
(lp4681
F-1.3622219813700001
asS'2843887546'
p4682
(lp4683
F-0.58860447486300005
asS'375278130'
p4684
(lp4685
F-1.5528348949799999
asS'424531790'
p4686
(lp4687
F-0.073838626770799998
asS'3150327612'
p4688
(lp4689
F-3.8204308015300001
asS'111704438'
p4690
(lp4691
F1.5956374705
asS'2300744983'
p4692
(lp4693
F-0.70799506984899996
asS'2160658435'
p4694
(lp4695
F-0.23743969964200001
asS'2572033740'
p4696
(lp4697
F0.33587898507699998
asS'3293648951'
p4698
(lp4699
F0.096525593877499996
as.